(dp0
I86020
ccopy_reg
_reconstructor
p1
(cways.graph
Junction
p2
c__builtin__
tuple
p3
(I86020
F31.996205
F34.8808592
(lp4
tp5
tp6
Rp7
sI11265
g1
(g2
g3
(I11265
F31.9740583
F34.7986193
(lp8
tp9
tp10
Rp11
sI36873
g1
(g2
g3
(I36873
F31.8932547
F34.8097819
(lp12
tp13
tp14
Rp15
sI36874
g1
(g2
g3
(I36874
F31.8930273
F34.8098477
(lp16
tp17
tp18
Rp19
sI36875
g1
(g2
g3
(I36875
F31.8929773
F34.8098622
(lp20
tp21
tp22
Rp23
sI36876
g1
(g2
g3
(I36876
F31.8925913
F34.8099577
(lp24
tp25
tp26
Rp27
sI36877
g1
(g2
g3
(I36877
F31.8925277
F34.8099689
(lp28
tp29
tp30
Rp31
sI36878
g1
(g2
g3
(I36878
F31.8924813
F34.8099587
(lp32
tp33
tp34
Rp35
sI36879
g1
(g2
g3
(I36879
F31.8924355
F34.809926
(lp36
tp37
tp38
Rp39
sI53266
g1
(g2
g3
(I53266
F31.987955
F34.7611848
(lp40
tp41
tp42
Rp43
sI35843
g1
(g2
g3
(I35843
F32.0413415
F34.7754745
(lp44
tp45
tp46
Rp47
sI34836
g1
(g2
g3
(I34836
F31.9697354
F34.8925704
(lp48
tp49
tp50
Rp51
sI18460
g1
(g2
g3
(I18460
F32.1249583
F34.7927945
(lp52
tp53
tp54
Rp55
sI57377
g1
(g2
g3
(I57377
F31.9629996
F34.7805229
(lp56
tp57
tp58
Rp59
sI38949
g1
(g2
g3
(I38949
F32.1307392
F34.8483574
(lp60
tp61
tp62
Rp63
sI30760
g1
(g2
g3
(I30760
F31.8940855
F34.8087248
(lp64
tp65
tp66
Rp67
sI38959
g1
(g2
g3
(I38959
F32.1325232
F34.8491204
(lp68
tp69
tp70
Rp71
sI38960
g1
(g2
g3
(I38960
F32.1314839
F34.8487943
(lp72
tp73
tp74
Rp75
sI6193
g1
(g2
g3
(I6193
F32.0972847
F34.7760489
(lp76
tp77
tp78
Rp79
sI86335
g1
(g2
g3
(I86335
F32.1868679
F34.8965694
(lp80
tp81
tp82
Rp83
sI18488
g1
(g2
g3
(I18488
F32.1314685
F34.7927053
(lp84
tp85
tp86
Rp87
sI81977
g1
(g2
g3
(I81977
F32.0817201
F34.806206
(lp88
tp89
tp90
Rp91
sI81979
g1
(g2
g3
(I81979
F32.0817364
F34.8061417
(lp92
tp93
tp94
Rp95
sI51267
g1
(g2
g3
(I51267
F32.0695392
F34.8392334
(lp96
tp97
tp98
Rp99
sI51268
g1
(g2
g3
(I51268
F32.0694611
F34.8391854
(lp100
tp101
tp102
Rp103
sI53319
g1
(g2
g3
(I53319
F31.9286849
F34.7920564
(lp104
tp105
tp106
Rp107
sI53320
g1
(g2
g3
(I53320
F31.9286673
F34.7921035
(lp108
tp109
tp110
Rp111
sI53321
g1
(g2
g3
(I53321
F31.9286817
F34.7922158
(lp112
tp113
tp114
Rp115
sI57422
g1
(g2
g3
(I57422
F31.9633853
F34.7806852
(lp116
tp117
tp118
Rp119
sI45136
g1
(g2
g3
(I45136
F32.1095206
F34.9656735
(lp120
tp121
tp122
Rp123
sI49237
g1
(g2
g3
(I49237
F32.0716047
F34.8457633
(lp124
tp125
tp126
Rp127
sI22618
g1
(g2
g3
(I22618
F32.169796
F34.9068481
(lp128
tp129
tp130
Rp131
sI41067
g1
(g2
g3
(I41067
F32.0180928
F34.7756675
(lp132
tp133
tp134
Rp135
sI24253
g1
(g2
g3
(I24253
F31.8819057
F34.7392191
(lp136
tp137
tp138
Rp139
sI12403
g1
(g2
g3
(I12403
F32.018917
F34.7456684
(lp140
tp141
tp142
Rp143
sI16504
g1
(g2
g3
(I16504
F32.0817603
F34.8035421
(lp144
tp145
tp146
Rp147
sI51321
g1
(g2
g3
(I51321
F32.0758481
F34.8291018
(lp148
tp149
tp150
Rp151
sI84093
g1
(g2
g3
(I84093
F32.0806479
F34.8229067
(lp152
tp153
tp154
Rp155
sI34965
g1
(g2
g3
(I34965
F31.928666
F34.7921677
(lp156
tp157
tp158
Rp159
sI30886
g1
(g2
g3
(I30886
F32.0935805
F34.9523377
(lp160
tp161
tp162
Rp163
sI45256
g1
(g2
g3
(I45256
F32.0666166
F34.8582351
(lp164
tp165
tp166
Rp167
sI45257
g1
(g2
g3
(I45257
F32.0666015
F34.8581939
(lp168
tp169
tp170
Rp171
sI84178
g1
(g2
g3
(I84178
F31.8927575
F34.7984758
(lp172
tp173
tp174
Rp175
sI26836
g1
(g2
g3
(I26836
F32.1239416
F34.8257449
(lp176
tp177
tp178
Rp179
sI65759
g1
(g2
g3
(I65759
F32.107912
F34.810398
(lp180
tp181
tp182
Rp183
sI30953
g1
(g2
g3
(I30953
F31.8909741
F34.8086988
(lp184
tp185
tp186
Rp187
sI14570
g1
(g2
g3
(I14570
F32.0956054
F34.7743958
(lp188
tp189
tp190
Rp191
sI14571
g1
(g2
g3
(I14571
F32.0950369
F34.7742131
(lp192
tp193
tp194
Rp195
sI14572
g1
(g2
g3
(I14572
F32.0948946
F34.7741619
(lp196
tp197
tp198
Rp199
sI10499
g1
(g2
g3
(I10499
F32.1083529
F34.96523
(lp200
tp201
tp202
Rp203
sI10505
g1
(g2
g3
(I10505
F32.1083163
F34.9652364
(lp204
tp205
tp206
Rp207
sI82186
g1
(g2
g3
(I82186
F32.086853
F34.8201464
(lp208
tp209
tp210
Rp211
sI82187
g1
(g2
g3
(I82187
F32.087483
F34.820302
(lp212
tp213
tp214
Rp215
sI82188
g1
(g2
g3
(I82188
F32.088046
F34.820498
(lp216
tp217
tp218
Rp219
sI82189
g1
(g2
g3
(I82189
F32.08843
F34.820586
(lp220
tp221
tp222
Rp223
sI82190
g1
(g2
g3
(I82190
F32.089326
F34.820543
(lp224
tp225
tp226
Rp227
sI82191
g1
(g2
g3
(I82191
F32.0898052
F34.8203826
(lp228
tp229
tp230
Rp231
sI82192
g1
(g2
g3
(I82192
F32.09013
F34.820238
(lp232
tp233
tp234
Rp235
sI82193
g1
(g2
g3
(I82193
F32.0793476
F34.8156776
(lp236
tp237
tp238
Rp239
sI82194
g1
(g2
g3
(I82194
F32.0794543
F34.8160032
(lp240
tp241
tp242
Rp243
sI82199
g1
(g2
g3
(I82199
F32.0799318
F34.8169909
(lp244
tp245
tp246
Rp247
sI16664
g1
(g2
g3
(I16664
F32.1068101
F34.8047977
(lp248
tp249
tp250
Rp251
sI16665
g1
(g2
g3
(I16665
F32.106851
F34.8047605
(lp252
tp253
tp254
Rp255
sI16666
g1
(g2
g3
(I16666
F32.1068786
F34.8047091
(lp256
tp257
tp258
Rp259
sI45341
g1
(g2
g3
(I45341
F32.0061271
F34.8267476
(lp260
tp261
tp262
Rp263
sI90400
g1
(g2
g3
(I90400
F31.9008883
F34.8197044
(lp264
tp265
tp266
Rp267
sI94503
g1
(g2
g3
(I94503
F32.0533018
F34.770444
(lp268
tp269
tp270
Rp271
sI16683
g1
(g2
g3
(I16683
F32.0830478
F34.7805621
(lp272
tp273
tp274
Rp275
sI22828
g1
(g2
g3
(I22828
F32.0189346
F34.7457809
(lp276
tp277
tp278
Rp279
sI84270
g1
(g2
g3
(I84270
F32.0806982
F34.8208001
(lp280
tp281
tp282
Rp283
sI96567
g1
(g2
g3
(I96567
F32.0887738
F34.8279407
(lp284
tp285
tp286
Rp287
sI96568
g1
(g2
g3
(I96568
F32.0888155
F34.8280447
(lp288
tp289
tp290
Rp291
sI74046
g1
(g2
g3
(I74046
F32.100613
F34.8485246
(lp292
tp293
tp294
Rp295
sI31039
g1
(g2
g3
(I31039
F32.1130371
F34.8341774
(lp296
tp297
tp298
Rp299
sI86336
g1
(g2
g3
(I86336
F32.1868698
F34.8965075
(lp300
tp301
tp302
Rp303
sI86337
g1
(g2
g3
(I86337
F32.1868533
F34.8964476
(lp304
tp305
tp306
Rp307
sI45380
g1
(g2
g3
(I45380
F32.0869954
F34.8754994
(lp308
tp309
tp310
Rp311
sI37194
g1
(g2
g3
(I37194
F31.8822132
F34.8030835
(lp312
tp313
tp314
Rp315
sI37195
g1
(g2
g3
(I37195
F31.8822484
F34.8030581
(lp316
tp317
tp318
Rp319
sI37196
g1
(g2
g3
(I37196
F31.8822742
F34.80302
(lp320
tp321
tp322
Rp323
sI31055
g1
(g2
g3
(I31055
F32.0956422
F34.7740642
(lp324
tp325
tp326
Rp327
sI57400
g1
(g2
g3
(I57400
F31.9637328
F34.7809051
(lp328
tp329
tp330
Rp331
sI3811
g1
(g2
g3
(I3811
F32.1472303
F34.8046254
(lp332
tp333
tp334
Rp335
sI3815
g1
(g2
g3
(I3815
F32.1470261
F34.8046865
(lp336
tp337
tp338
Rp339
sI37229
g1
(g2
g3
(I37229
F31.8917168
F34.7981736
(lp340
tp341
tp342
Rp343
sI37230
g1
(g2
g3
(I37230
F31.8909336
F34.7979954
(lp344
tp345
tp346
Rp347
sI26003
g1
(g2
g3
(I26003
F32.1166329
F34.8152293
(lp348
tp349
tp350
Rp351
sI8567
g1
(g2
g3
(I8567
F31.968077
F34.7895619
(lp352
tp353
tp354
Rp355
sI4476
g1
(g2
g3
(I4476
F32.0822724
F34.7918897
(lp356
tp357
tp358
Rp359
sI381
g1
(g2
g3
(I381
F32.0865667
F34.7912277
(lp360
tp361
tp362
Rp363
sI382
g1
(g2
g3
(I382
F32.0866428
F34.7912415
(lp364
tp365
tp366
Rp367
sI47489
g1
(g2
g3
(I47489
F32.0101511
F34.7663083
(lp368
tp369
tp370
Rp371
sI29058
g1
(g2
g3
(I29058
F31.9952779
F34.9028309
(lp372
tp373
tp374
Rp375
sI18832
g1
(g2
g3
(I18832
F32.0657229
F34.7653721
(lp376
tp377
tp378
Rp379
sI18840
g1
(g2
g3
(I18840
F32.0667327
F34.7639491
(lp380
tp381
tp382
Rp383
sI415
g1
(g2
g3
(I415
F32.0960316
F34.7904861
(lp384
tp385
tp386
Rp387
sI12705
g1
(g2
g3
(I12705
F32.0191426
F34.745574
(lp388
tp389
tp390
Rp391
sI12706
g1
(g2
g3
(I12706
F32.0210929
F34.7454967
(lp392
tp393
tp394
Rp395
sI51620
g1
(g2
g3
(I51620
F32.0268543
F34.7633709
(lp396
tp397
tp398
Rp399
sI51621
g1
(g2
g3
(I51621
F32.0265319
F34.7632724
(lp400
tp401
tp402
Rp403
sI47529
g1
(g2
g3
(I47529
F32.0150581
F34.7919387
(lp404
tp405
tp406
Rp407
sI29110
g1
(g2
g3
(I29110
F32.056716
F34.7892357
(lp408
tp409
tp410
Rp411
sI16830
g1
(g2
g3
(I16830
F32.1182658
F34.8000398
(lp412
tp413
tp414
Rp415
sI16831
g1
(g2
g3
(I16831
F32.1182614
F34.8001012
(lp416
tp417
tp418
Rp419
sI16832
g1
(g2
g3
(I16832
F32.1182799
F34.8001715
(lp420
tp421
tp422
Rp423
sI16833
g1
(g2
g3
(I16833
F32.1183128
F34.8002191
(lp424
tp425
tp426
Rp427
sI16834
g1
(g2
g3
(I16834
F32.118334
F34.800234
(lp428
tp429
tp430
Rp431
sI16835
g1
(g2
g3
(I16835
F32.1183576
F34.8002507
(lp432
tp433
tp434
Rp435
sI16836
g1
(g2
g3
(I16836
F32.118385
F34.8002596
(lp436
tp437
tp438
Rp439
sI74184
g1
(g2
g3
(I74184
F32.0079654
F34.7621204
(lp440
tp441
tp442
Rp443
sI61903
g1
(g2
g3
(I61903
F31.9885544
F34.8995195
(lp444
tp445
tp446
Rp447
sI61904
g1
(g2
g3
(I61904
F31.9885008
F34.8994719
(lp448
tp449
tp450
Rp451
sI61905
g1
(g2
g3
(I61905
F31.9884345
F34.899446
(lp452
tp453
tp454
Rp455
sI61906
g1
(g2
g3
(I61906
F31.9883535
F34.8994464
(lp456
tp457
tp458
Rp459
sI61907
g1
(g2
g3
(I61907
F31.9882768
F34.89948
(lp460
tp461
tp462
Rp463
sI61908
g1
(g2
g3
(I61908
F31.9882153
F34.899542
(lp464
tp465
tp466
Rp467
sI61909
g1
(g2
g3
(I61909
F31.9881754
F34.899625
(lp468
tp469
tp470
Rp471
sI61910
g1
(g2
g3
(I61910
F31.9881633
F34.899746
(lp472
tp473
tp474
Rp475
sI51678
g1
(g2
g3
(I51678
F32.0274644
F34.7643275
(lp476
tp477
tp478
Rp479
sI37968
g1
(g2
g3
(I37968
F31.8928402
F34.7984942
(lp480
tp481
tp482
Rp483
sI51684
g1
(g2
g3
(I51684
F32.0264533
F34.7640069
(lp484
tp485
tp486
Rp487
sI28071
g1
(g2
g3
(I28071
F32.0957097
F34.824594
(lp488
tp489
tp490
Rp491
sI27132
g1
(g2
g3
(I27132
F32.1205762
F34.8319003
(lp492
tp493
tp494
Rp495
sI27133
g1
(g2
g3
(I27133
F32.120708
F34.8318399
(lp496
tp497
tp498
Rp499
sI27134
g1
(g2
g3
(I27134
F32.1210356
F34.8317002
(lp500
tp501
tp502
Rp503
sI27135
g1
(g2
g3
(I27135
F32.1213991
F34.8315715
(lp504
tp505
tp506
Rp507
sI51712
g1
(g2
g3
(I51712
F32.0265413
F34.76321
(lp508
tp509
tp510
Rp511
sI51713
g1
(g2
g3
(I51713
F32.0262587
F34.763233
(lp512
tp513
tp514
Rp515
sI66052
g1
(g2
g3
(I66052
F31.9493311
F34.8037838
(lp516
tp517
tp518
Rp519
sI27141
g1
(g2
g3
(I27141
F32.1203887
F34.8317689
(lp520
tp521
tp522
Rp523
sI27142
g1
(g2
g3
(I27142
F32.119749
F34.8315543
(lp524
tp525
tp526
Rp527
sI54017
g1
(g2
g3
(I54017
F32.0817563
F34.8029489
(lp528
tp529
tp530
Rp531
sI21250
g1
(g2
g3
(I21250
F32.1091912
F34.8302723
(lp532
tp533
tp534
Rp535
sI66062
g1
(g2
g3
(I66062
F31.9491226
F34.8037824
(lp536
tp537
tp538
Rp539
sI66063
g1
(g2
g3
(I66063
F31.9491322
F34.8037411
(lp540
tp541
tp542
Rp543
sI66064
g1
(g2
g3
(I66064
F31.9491522
F34.8037072
(lp544
tp545
tp546
Rp547
sI66065
g1
(g2
g3
(I66065
F31.9491818
F34.8036823
(lp548
tp549
tp550
Rp551
sI76306
g1
(g2
g3
(I76306
F32.0376976
F34.7621135
(lp552
tp553
tp554
Rp555
sI5212
g1
(g2
g3
(I5212
F32.0703363
F34.805237
(lp556
tp557
tp558
Rp559
sI18183
g1
(g2
g3
(I18183
F32.0874146
F34.793786
(lp560
tp561
tp562
Rp563
sI32179
g1
(g2
g3
(I32179
F32.1219048
F34.808253
(lp564
tp565
tp566
Rp567
sI16967
g1
(g2
g3
(I16967
F32.0961083
F34.7905354
(lp568
tp569
tp570
Rp571
sI81677
g1
(g2
g3
(I81677
F32.0659243
F34.8057229
(lp572
tp573
tp574
Rp575
sI19025
g1
(g2
g3
(I19025
F32.0574848
F34.7683724
(lp576
tp577
tp578
Rp579
sI8992
g1
(g2
g3
(I8992
F31.9980442
F34.7354055
(lp580
tp581
tp582
Rp583
sI4721
g1
(g2
g3
(I4721
F32.0814822
F34.7835186
(lp584
tp585
tp586
Rp587
sI4722
g1
(g2
g3
(I4722
F32.0809437
F34.7828104
(lp588
tp589
tp590
Rp591
sI53875
g1
(g2
g3
(I53875
F32.0807237
F34.8024993
(lp592
tp593
tp594
Rp595
sI10870
g1
(g2
g3
(I10870
F32.1128069
F34.9638662
(lp596
tp597
tp598
Rp599
sI74365
g1
(g2
g3
(I74365
F32.0165522
F34.7754755
(lp600
tp601
tp602
Rp603
sI29313
g1
(g2
g3
(I29313
F31.9036459
F34.8122584
(lp604
tp605
tp606
Rp607
sI17026
g1
(g2
g3
(I17026
F32.092335
F34.793994
(lp608
tp609
tp610
Rp611
sI4739
g1
(g2
g3
(I4739
F32.0807577
F34.7846226
(lp612
tp613
tp614
Rp615
sI4740
g1
(g2
g3
(I4740
F32.0813155
F34.7846706
(lp616
tp617
tp618
Rp619
sI4741
g1
(g2
g3
(I4741
F32.0813672
F34.7846375
(lp620
tp621
tp622
Rp623
sI17030
g1
(g2
g3
(I17030
F32.0923929
F34.7942939
(lp624
tp625
tp626
Rp627
sI47756
g1
(g2
g3
(I47756
F32.0077487
F34.8077589
(lp628
tp629
tp630
Rp631
sI47757
g1
(g2
g3
(I47757
F32.0077646
F34.8077988
(lp632
tp633
tp634
Rp635
sI47758
g1
(g2
g3
(I47758
F32.0077949
F34.8078363
(lp636
tp637
tp638
Rp639
sI2712
g1
(g2
g3
(I2712
F32.0695272
F34.8053446
(lp640
tp641
tp642
Rp643
sI47770
g1
(g2
g3
(I47770
F32.0082169
F34.805123
(lp644
tp645
tp646
Rp647
sI47771
g1
(g2
g3
(I47771
F32.0081935
F34.8051398
(lp648
tp649
tp650
Rp651
sI677
g1
(g2
g3
(I677
F32.0922339
F34.7926599
(lp652
tp653
tp654
Rp655
sI51880
g1
(g2
g3
(I51880
F32.0328037
F34.7658124
(lp656
tp657
tp658
Rp659
sI21162
g1
(g2
g3
(I21162
F32.1134702
F34.8367381
(lp660
tp661
tp662
Rp663
sI21165
g1
(g2
g3
(I21165
F32.1124701
F34.8357735
(lp664
tp665
tp666
Rp667
sI15041
g1
(g2
g3
(I15041
F32.0655271
F34.7646495
(lp668
tp669
tp670
Rp671
sI35537
g1
(g2
g3
(I35537
F32.0683283
F34.7665123
(lp672
tp673
tp674
Rp675
sI92882
g1
(g2
g3
(I92882
F31.900924
F34.8197193
(lp676
tp677
tp678
Rp679
sI13032
g1
(g2
g3
(I13032
F31.9783931
F34.7907591
(lp680
tp681
tp682
Rp683
sI13034
g1
(g2
g3
(I13034
F31.9795138
F34.7913825
(lp684
tp685
tp686
Rp687
sI756
g1
(g2
g3
(I756
F31.9823084
F34.8020768
(lp688
tp689
tp690
Rp691
sI21244
g1
(g2
g3
(I21244
F32.113721
F34.8361479
(lp692
tp693
tp694
Rp695
sI21245
g1
(g2
g3
(I21245
F32.1134241
F34.8368346
(lp696
tp697
tp698
Rp699
sI21246
g1
(g2
g3
(I21246
F32.1133072
F34.8370869
(lp700
tp701
tp702
Rp703
sI4865
g1
(g2
g3
(I4865
F32.0578673
F34.7683018
(lp704
tp705
tp706
Rp707
sI54018
g1
(g2
g3
(I54018
F32.0820169
F34.8028054
(lp708
tp709
tp710
Rp711
sI13069
g1
(g2
g3
(I13069
F31.9802801
F34.7892734
(lp712
tp713
tp714
Rp715
sI76569
g1
(g2
g3
(I76569
F32.0163377
F34.7545231
(lp716
tp717
tp718
Rp719
sI13084
g1
(g2
g3
(I13084
F31.9795417
F34.7891797
(lp720
tp721
tp722
Rp723
sI17184
g1
(g2
g3
(I17184
F32.0820129
F34.7932078
(lp724
tp725
tp726
Rp727
sI82738
g1
(g2
g3
(I82738
F32.0704473
F34.8398522
(lp728
tp729
tp730
Rp731
sI33594
g1
(g2
g3
(I33594
F32.0680091
F34.7671166
(lp732
tp733
tp734
Rp735
sI11069
g1
(g2
g3
(I11069
F31.9552623
F34.9046184
(lp736
tp737
tp738
Rp739
sI14133
g1
(g2
g3
(I14133
F31.959483
F34.8043091
(lp740
tp741
tp742
Rp743
sI17218
g1
(g2
g3
(I17218
F32.1712165
F34.8438042
(lp744
tp745
tp746
Rp747
sI72524
g1
(g2
g3
(I72524
F32.0832461
F34.7813113
(lp748
tp749
tp750
Rp751
sI56152
g1
(g2
g3
(I56152
F31.977158
F34.7687971
(lp752
tp753
tp754
Rp755
sI13146
g1
(g2
g3
(I13146
F31.9806247
F34.7892809
(lp756
tp757
tp758
Rp759
sI13154
g1
(g2
g3
(I13154
F31.9804529
F34.7892827
(lp760
tp761
tp762
Rp763
sI23405
g1
(g2
g3
(I23405
F32.2107358
F34.8835511
(lp764
tp765
tp766
Rp767
sI23406
g1
(g2
g3
(I23406
F32.2106632
F34.8833741
(lp768
tp769
tp770
Rp771
sI37761
g1
(g2
g3
(I37761
F32.1515319
F34.8376375
(lp772
tp773
tp774
Rp775
sI46676
g1
(g2
g3
(I46676
F32.0249071
F34.7790619
(lp776
tp777
tp778
Rp779
sI29603
g1
(g2
g3
(I29603
F31.9065317
F34.8206384
(lp780
tp781
tp782
Rp783
sI29604
g1
(g2
g3
(I29604
F31.9065509
F34.8206687
(lp784
tp785
tp786
Rp787
sI29605
g1
(g2
g3
(I29605
F31.906586
F34.8206951
(lp788
tp789
tp790
Rp791
sI29606
g1
(g2
g3
(I29606
F31.9065998
F34.8206999
(lp792
tp793
tp794
Rp795
sI29614
g1
(g2
g3
(I29614
F31.9066914
F34.8204931
(lp796
tp797
tp798
Rp799
sI13244
g1
(g2
g3
(I13244
F31.9888038
F34.7861123
(lp800
tp801
tp802
Rp803
sI13245
g1
(g2
g3
(I13245
F31.9890285
F34.7861337
(lp804
tp805
tp806
Rp807
sI43980
g1
(g2
g3
(I43980
F32.0300316
F34.8809129
(lp808
tp809
tp810
Rp811
sI43981
g1
(g2
g3
(I43981
F32.0300465
F34.8809438
(lp812
tp813
tp814
Rp815
sI43982
g1
(g2
g3
(I43982
F32.0300624
F34.8809668
(lp816
tp817
tp818
Rp819
sI43983
g1
(g2
g3
(I43983
F32.0300832
F34.8809887
(lp820
tp821
tp822
Rp823
sI9178
g1
(g2
g3
(I9178
F31.9920616
F34.7762141
(lp824
tp825
tp826
Rp827
sI62438
g1
(g2
g3
(I62438
F32.0142543
F34.8293192
(lp828
tp829
tp830
Rp831
sI62441
g1
(g2
g3
(I62441
F32.0185844
F34.8289544
(lp832
tp833
tp834
Rp835
sI62442
g1
(g2
g3
(I62442
F32.0172745
F34.8278922
(lp836
tp837
tp838
Rp839
sI62443
g1
(g2
g3
(I62443
F32.0165831
F34.8272378
(lp840
tp841
tp842
Rp843
sI62449
g1
(g2
g3
(I62449
F32.0187118
F34.8243732
(lp844
tp845
tp846
Rp847
sI62450
g1
(g2
g3
(I62450
F32.0205766
F34.8256499
(lp848
tp849
tp850
Rp851
sI62451
g1
(g2
g3
(I62451
F32.0208677
F34.8258645
(lp852
tp853
tp854
Rp855
sI23540
g1
(g2
g3
(I23540
F32.2108808
F34.884084
(lp856
tp857
tp858
Rp859
sI35829
g1
(g2
g3
(I35829
F32.04139
F34.7755858
(lp860
tp861
tp862
Rp863
sI3062
g1
(g2
g3
(I3062
F32.1103695
F34.8259196
(lp864
tp865
tp866
Rp867
sI17401
g1
(g2
g3
(I17401
F32.10901
F34.819405
(lp868
tp869
tp870
Rp871
sI17402
g1
(g2
g3
(I17402
F32.1085595
F34.8195655
(lp872
tp873
tp874
Rp875
sI35837
g1
(g2
g3
(I35837
F32.0415237
F34.7753787
(lp876
tp877
tp878
Rp879
sI7169
g1
(g2
g3
(I7169
F31.9908182
F34.904307
(lp880
tp881
tp882
Rp883
sI48131
g1
(g2
g3
(I48131
F32.0180833
F34.7757531
(lp884
tp885
tp886
Rp887
sI35850
g1
(g2
g3
(I35850
F32.041924
F34.7748017
(lp888
tp889
tp890
Rp891
sI25620
g1
(g2
g3
(I25620
F31.8820788
F34.7393479
(lp892
tp893
tp894
Rp895
sI51726
g1
(g2
g3
(I51726
F32.0296379
F34.7651934
(lp896
tp897
tp898
Rp899
sI9243
g1
(g2
g3
(I9243
F31.9777983
F34.790677
(lp900
tp901
tp902
Rp903
sI66053
g1
(g2
g3
(I66053
F31.9493277
F34.8038264
(lp904
tp905
tp906
Rp907
sI5155
g1
(g2
g3
(I5155
F32.1184372
F34.8002595
(lp908
tp909
tp910
Rp911
sI66054
g1
(g2
g3
(I66054
F31.9493135
F34.8038628
(lp912
tp913
tp914
Rp915
sI48167
g1
(g2
g3
(I48167
F32.0165955
F34.7754796
(lp916
tp917
tp918
Rp919
sI5169
g1
(g2
g3
(I5169
F32.0956858
F34.7737895
(lp920
tp921
tp922
Rp923
sI5172
g1
(g2
g3
(I5172
F32.0938098
F34.7737466
(lp924
tp925
tp926
Rp927
sI5173
g1
(g2
g3
(I5173
F32.0962744
F34.7745713
(lp928
tp929
tp930
Rp931
sI33872
g1
(g2
g3
(I33872
F32.0516519
F34.7708349
(lp932
tp933
tp934
Rp935
sI33873
g1
(g2
g3
(I33873
F32.0517642
F34.7702083
(lp936
tp937
tp938
Rp939
sI68692
g1
(g2
g3
(I68692
F32.0564012
F34.756998
(lp940
tp941
tp942
Rp943
sI62549
g1
(g2
g3
(I62549
F31.951916
F34.774935
(lp944
tp945
tp946
Rp947
sI62550
g1
(g2
g3
(I62550
F31.9519228
F34.7749378
(lp948
tp949
tp950
Rp951
sI70748
g1
(g2
g3
(I70748
F32.0112005
F34.7927054
(lp952
tp953
tp954
Rp955
sI29790
g1
(g2
g3
(I29790
F31.9698116
F34.7692495
(lp956
tp957
tp958
Rp959
sI11362
g1
(g2
g3
(I11362
F31.9736152
F34.7990003
(lp960
tp961
tp962
Rp963
sI23663
g1
(g2
g3
(I23663
F32.0778312
F34.8469858
(lp964
tp965
tp966
Rp967
sI33909
g1
(g2
g3
(I33909
F32.052977
F34.77036
(lp968
tp969
tp970
Rp971
sI40062
g1
(g2
g3
(I40062
F32.0951461
F34.9724528
(lp972
tp973
tp974
Rp975
sI5254
g1
(g2
g3
(I5254
F32.1630102
F34.810239
(lp976
tp977
tp978
Rp979
sI11403
g1
(g2
g3
(I11403
F31.9762553
F34.7991487
(lp980
tp981
tp982
Rp983
sI29894
g1
(g2
g3
(I29894
F31.9772916
F34.7695981
(lp984
tp985
tp986
Rp987
sI68787
g1
(g2
g3
(I68787
F32.085252
F34.8198168
(lp988
tp989
tp990
Rp991
sI68788
g1
(g2
g3
(I68788
F32.0854532
F34.8188987
(lp992
tp993
tp994
Rp995
sI21686
g1
(g2
g3
(I21686
F32.0715817
F34.7861439
(lp996
tp997
tp998
Rp999
sI29881
g1
(g2
g3
(I29881
F31.9710735
F34.7774932
(lp1000
tp1001
tp1002
Rp1003
sI29893
g1
(g2
g3
(I29893
F31.9752348
F34.7701989
(lp1004
tp1005
tp1006
Rp1007
sI19654
g1
(g2
g3
(I19654
F32.2463611
F34.888656
(lp1008
tp1009
tp1010
Rp1011
sI19655
g1
(g2
g3
(I19655
F32.246307
F34.888987
(lp1012
tp1013
tp1014
Rp1015
sI19656
g1
(g2
g3
(I19656
F32.2460092
F34.8909098
(lp1016
tp1017
tp1018
Rp1019
sI19657
g1
(g2
g3
(I19657
F32.245774
F34.892428
(lp1020
tp1021
tp1022
Rp1023
sI19658
g1
(g2
g3
(I19658
F32.245723
F34.893057
(lp1024
tp1025
tp1026
Rp1027
sI19659
g1
(g2
g3
(I19659
F32.245791
F34.893631
(lp1028
tp1029
tp1030
Rp1031
sI19660
g1
(g2
g3
(I19660
F32.245954
F34.894138
(lp1032
tp1033
tp1034
Rp1035
sI95437
g1
(g2
g3
(I95437
F32.0249337
F34.9089669
(lp1036
tp1037
tp1038
Rp1039
sI95438
g1
(g2
g3
(I95438
F32.0249498
F34.9091009
(lp1040
tp1041
tp1042
Rp1043
sI95439
g1
(g2
g3
(I95439
F32.024968
F34.9093101
(lp1044
tp1045
tp1046
Rp1047
sI95440
g1
(g2
g3
(I95440
F32.0249771
F34.9094174
(lp1048
tp1049
tp1050
Rp1051
sI95441
g1
(g2
g3
(I95441
F32.0249771
F34.90953
(lp1052
tp1053
tp1054
Rp1055
sI95442
g1
(g2
g3
(I95442
F32.0249725
F34.9096158
(lp1056
tp1057
tp1058
Rp1059
sI1237
g1
(g2
g3
(I1237
F32.0636199
F34.8579409
(lp1060
tp1061
tp1062
Rp1063
sI5327
g1
(g2
g3
(I5327
F32.1788819
F34.8057406
(lp1064
tp1065
tp1066
Rp1067
sI77026
g1
(g2
g3
(I77026
F32.107818
F34.8104465
(lp1068
tp1069
tp1070
Rp1071
sI77028
g1
(g2
g3
(I77028
F32.1079026
F34.8103221
(lp1072
tp1073
tp1074
Rp1075
sI77029
g1
(g2
g3
(I77029
F32.1079132
F34.8103479
(lp1076
tp1077
tp1078
Rp1079
sI83174
g1
(g2
g3
(I83174
F32.0667252
F34.8212547
(lp1080
tp1081
tp1082
Rp1083
sI83175
g1
(g2
g3
(I83175
F32.0672406
F34.8214384
(lp1084
tp1085
tp1086
Rp1087
sI83176
g1
(g2
g3
(I83176
F32.0676113
F34.8215737
(lp1088
tp1089
tp1090
Rp1091
sI77034
g1
(g2
g3
(I77034
F32.1077977
F34.8104306
(lp1092
tp1093
tp1094
Rp1095
sI77035
g1
(g2
g3
(I77035
F32.1077788
F34.8103942
(lp1096
tp1097
tp1098
Rp1099
sI77036
g1
(g2
g3
(I77036
F32.107776
F34.8103657
(lp1100
tp1101
tp1102
Rp1103
sI77037
g1
(g2
g3
(I77037
F32.1077853
F34.8103291
(lp1104
tp1105
tp1106
Rp1107
sI77038
g1
(g2
g3
(I77038
F32.107801
F34.8103072
(lp1108
tp1109
tp1110
Rp1111
sI77039
g1
(g2
g3
(I77039
F32.1078508
F34.8102882
(lp1112
tp1113
tp1114
Rp1115
sI77040
g1
(g2
g3
(I77040
F32.1078744
F34.8102951
(lp1116
tp1117
tp1118
Rp1119
sI77041
g1
(g2
g3
(I77041
F32.1078946
F34.8103112
(lp1120
tp1121
tp1122
Rp1123
sI37419
g1
(g2
g3
(I37419
F32.1321806
F34.8423493
(lp1124
tp1125
tp1126
Rp1127
sI27918
g1
(g2
g3
(I27918
F32.1004574
F34.8484945
(lp1128
tp1129
tp1130
Rp1131
sI27919
g1
(g2
g3
(I27919
F32.1001699
F34.8485015
(lp1132
tp1133
tp1134
Rp1135
sI24451
g1
(g2
g3
(I24451
F31.8870649
F34.7931475
(lp1136
tp1137
tp1138
Rp1139
sI38166
g1
(g2
g3
(I38166
F31.900906
F34.799461
(lp1140
tp1141
tp1142
Rp1143
sI38167
g1
(g2
g3
(I38167
F31.9009589
F34.7987622
(lp1144
tp1145
tp1146
Rp1147
sI86311
g1
(g2
g3
(I86311
F32.1873086
F34.8914085
(lp1148
tp1149
tp1150
Rp1151
sI15652
g1
(g2
g3
(I15652
F32.1672741
F34.8349456
(lp1152
tp1153
tp1154
Rp1155
sI11560
g1
(g2
g3
(I11560
F32.0281442
F34.7464323
(lp1156
tp1157
tp1158
Rp1159
sI58671
g1
(g2
g3
(I58671
F32.210801
F34.8839591
(lp1160
tp1161
tp1162
Rp1163
sI79166
g1
(g2
g3
(I79166
F32.0538844
F34.779971
(lp1164
tp1165
tp1166
Rp1167
sI5442
g1
(g2
g3
(I5442
F32.0953677
F34.7743284
(lp1168
tp1169
tp1170
Rp1171
sI13642
g1
(g2
g3
(I13642
F31.9890656
F34.7860304
(lp1172
tp1173
tp1174
Rp1175
sI15692
g1
(g2
g3
(I15692
F32.1672212
F34.8461532
(lp1176
tp1177
tp1178
Rp1179
sI15693
g1
(g2
g3
(I15693
F32.1672365
F34.8461295
(lp1180
tp1181
tp1182
Rp1183
sI83172
g1
(g2
g3
(I83172
F32.0663557
F34.8211229
(lp1184
tp1185
tp1186
Rp1187
sI5467
g1
(g2
g3
(I5467
F32.0792527
F34.8152477
(lp1188
tp1189
tp1190
Rp1191
sI7518
g1
(g2
g3
(I7518
F32.0312222
F34.8663513
(lp1192
tp1193
tp1194
Rp1195
sI25953
g1
(g2
g3
(I25953
F32.116666
F34.8152151
(lp1196
tp1197
tp1198
Rp1199
sI77030
g1
(g2
g3
(I77030
F32.1079158
F34.8103764
(lp1200
tp1201
tp1202
Rp1203
sI59281
g1
(g2
g3
(I59281
F31.9298142
F34.7877573
(lp1204
tp1205
tp1206
Rp1207
sI21873
g1
(g2
g3
(I21873
F32.0654716
F34.7646411
(lp1208
tp1209
tp1210
Rp1211
sI60790
g1
(g2
g3
(I60790
F31.8884017
F34.8195061
(lp1212
tp1213
tp1214
Rp1215
sI21883
g1
(g2
g3
(I21883
F32.0655958
F34.7649625
(lp1216
tp1217
tp1218
Rp1219
sI2282
g1
(g2
g3
(I2282
F32.088588
F34.8205841
(lp1220
tp1221
tp1222
Rp1223
sI21887
g1
(g2
g3
(I21887
F32.0655867
F34.7646893
(lp1224
tp1225
tp1226
Rp1227
sI5504
g1
(g2
g3
(I5504
F32.1788479
F34.8057846
(lp1228
tp1229
tp1230
Rp1231
sI5505
g1
(g2
g3
(I5505
F32.1788266
F34.8058463
(lp1232
tp1233
tp1234
Rp1235
sI25990
g1
(g2
g3
(I25990
F32.1166907
F34.8151901
(lp1236
tp1237
tp1238
Rp1239
sI25991
g1
(g2
g3
(I25991
F32.1167066
F34.8151567
(lp1240
tp1241
tp1242
Rp1243
sI26002
g1
(g2
g3
(I26002
F32.1166004
F34.8152286
(lp1244
tp1245
tp1246
Rp1247
sI28227
g1
(g2
g3
(I28227
F32.186126
F34.8187615
(lp1248
tp1249
tp1250
Rp1251
sI26015
g1
(g2
g3
(I26015
F32.1078159
F34.8102959
(lp1252
tp1253
tp1254
Rp1255
sI32167
g1
(g2
g3
(I32167
F32.123025
F34.8085966
(lp1256
tp1257
tp1258
Rp1259
sI40360
g1
(g2
g3
(I40360
F32.0540913
F34.8139184
(lp1260
tp1261
tp1262
Rp1263
sI40361
g1
(g2
g3
(I40361
F32.0543125
F34.8135252
(lp1264
tp1265
tp1266
Rp1267
sI40362
g1
(g2
g3
(I40362
F32.0546902
F34.8128541
(lp1268
tp1269
tp1270
Rp1271
sI32172
g1
(g2
g3
(I32172
F32.1228934
F34.8091199
(lp1272
tp1273
tp1274
Rp1275
sI44239
g1
(g2
g3
(I44239
F32.065809
F34.8472424
(lp1276
tp1277
tp1278
Rp1279
sI83379
g1
(g2
g3
(I83379
F32.0646937
F34.7967056
(lp1280
tp1281
tp1282
Rp1283
sI64950
g1
(g2
g3
(I64950
F32.0665197
F34.8580035
(lp1284
tp1285
tp1286
Rp1287
sI38473
g1
(g2
g3
(I38473
F32.0566314
F34.794579
(lp1288
tp1289
tp1290
Rp1291
sI19929
g1
(g2
g3
(I19929
F32.0556152
F34.7564791
(lp1292
tp1293
tp1294
Rp1295
sI7647
g1
(g2
g3
(I7647
F31.9713108
F34.8101439
(lp1296
tp1297
tp1298
Rp1299
sI5603
g1
(g2
g3
(I5603
F32.0818252
F34.7917991
(lp1300
tp1301
tp1302
Rp1303
sI19941
g1
(g2
g3
(I19941
F32.0554731
F34.7565232
(lp1304
tp1305
tp1306
Rp1307
sI19942
g1
(g2
g3
(I19942
F32.0555009
F34.7565375
(lp1308
tp1309
tp1310
Rp1311
sI19943
g1
(g2
g3
(I19943
F32.0555358
F34.7565409
(lp1312
tp1313
tp1314
Rp1315
sI19944
g1
(g2
g3
(I19944
F32.0555695
F34.7565302
(lp1316
tp1317
tp1318
Rp1319
sI9810
g1
(g2
g3
(I9810
F32.093701
F34.801967
(lp1320
tp1321
tp1322
Rp1323
sI13808
g1
(g2
g3
(I13808
F31.953447
F34.8063956
(lp1324
tp1325
tp1326
Rp1327
sI13809
g1
(g2
g3
(I13809
F31.9535348
F34.8069394
(lp1328
tp1329
tp1330
Rp1331
sI13810
g1
(g2
g3
(I13810
F31.9533876
F34.8069678
(lp1332
tp1333
tp1334
Rp1335
sI46675
g1
(g2
g3
(I46675
F32.0249101
F34.7790164
(lp1336
tp1337
tp1338
Rp1339
sI9812
g1
(g2
g3
(I9812
F32.096329
F34.80244
(lp1340
tp1341
tp1342
Rp1343
sI28248
g1
(g2
g3
(I28248
F32.1861184
F34.8187299
(lp1344
tp1345
tp1346
Rp1347
sI38418
g1
(g2
g3
(I38418
F32.1333017
F34.837531
(lp1348
tp1349
tp1350
Rp1351
sI54807
g1
(g2
g3
(I54807
F32.1678571
F34.8132103
(lp1352
tp1353
tp1354
Rp1355
sI81432
g1
(g2
g3
(I81432
F32.0671441
F34.7896334
(lp1356
tp1357
tp1358
Rp1359
sI81438
g1
(g2
g3
(I81438
F32.0687067
F34.7911088
(lp1360
tp1361
tp1362
Rp1363
sI70565
g1
(g2
g3
(I70565
F32.0252048
F34.7765959
(lp1364
tp1365
tp1366
Rp1367
sI81453
g1
(g2
g3
(I81453
F32.067364
F34.7879054
(lp1368
tp1369
tp1370
Rp1371
sI52783
g1
(g2
g3
(I52783
F32.0238093
F34.7591239
(lp1372
tp1373
tp1374
Rp1375
sI38448
g1
(g2
g3
(I38448
F32.0570716
F34.7893262
(lp1376
tp1377
tp1378
Rp1379
sI46642
g1
(g2
g3
(I46642
F32.0251262
F34.7764985
(lp1380
tp1381
tp1382
Rp1383
sI38456
g1
(g2
g3
(I38456
F32.0571225
F34.7871547
(lp1384
tp1385
tp1386
Rp1387
sI38458
g1
(g2
g3
(I38458
F32.0570901
F34.788537
(lp1388
tp1389
tp1390
Rp1391
sI38462
g1
(g2
g3
(I38462
F32.0564346
F34.7944377
(lp1392
tp1393
tp1394
Rp1395
sI52799
g1
(g2
g3
(I52799
F32.0173119
F34.7544374
(lp1396
tp1397
tp1398
Rp1399
sI38464
g1
(g2
g3
(I38464
F32.056493
F34.7944052
(lp1400
tp1401
tp1402
Rp1403
sI11842
g1
(g2
g3
(I11842
F32.1430466
F34.806159
(lp1404
tp1405
tp1406
Rp1407
sI11843
g1
(g2
g3
(I11843
F32.143063
F34.8062119
(lp1408
tp1409
tp1410
Rp1411
sI11844
g1
(g2
g3
(I11844
F32.1430966
F34.8062574
(lp1412
tp1413
tp1414
Rp1415
sI11845
g1
(g2
g3
(I11845
F32.1431394
F34.8062847
(lp1416
tp1417
tp1418
Rp1419
sI11846
g1
(g2
g3
(I11846
F32.1431876
F34.8062931
(lp1420
tp1421
tp1422
Rp1423
sI38471
g1
(g2
g3
(I38471
F32.0565546
F34.7946428
(lp1424
tp1425
tp1426
Rp1427
sI38472
g1
(g2
g3
(I38472
F32.0566033
F34.794616
(lp1428
tp1429
tp1430
Rp1431
sI24844
g1
(g2
g3
(I24844
F32.0661852
F34.8056912
(lp1432
tp1433
tp1434
Rp1435
sI38474
g1
(g2
g3
(I38474
F32.0566438
F34.7945168
(lp1436
tp1437
tp1438
Rp1439
sI46670
g1
(g2
g3
(I46670
F32.0251376
F34.7789034
(lp1440
tp1441
tp1442
Rp1443
sI46671
g1
(g2
g3
(I46671
F32.0250572
F34.7788772
(lp1444
tp1445
tp1446
Rp1447
sI46672
g1
(g2
g3
(I46672
F32.0250134
F34.778885
(lp1448
tp1449
tp1450
Rp1451
sI46673
g1
(g2
g3
(I46673
F32.0249665
F34.7789134
(lp1452
tp1453
tp1454
Rp1455
sI46674
g1
(g2
g3
(I46674
F32.0249306
F34.778959
(lp1456
tp1457
tp1458
Rp1459
sI9811
g1
(g2
g3
(I9811
F32.095404
F34.802268
(lp1460
tp1461
tp1462
Rp1463
sI32340
g1
(g2
g3
(I32340
F32.1229223
F34.8090018
(lp1464
tp1465
tp1466
Rp1467
sI28247
g1
(g2
g3
(I28247
F32.1861076
F34.8187104
(lp1468
tp1469
tp1470
Rp1471
sI44632
g1
(g2
g3
(I44632
F32.0839092
F34.8006647
(lp1472
tp1473
tp1474
Rp1475
sI65113
g1
(g2
g3
(I65113
F32.1131019
F34.8339691
(lp1476
tp1477
tp1478
Rp1479
sI65114
g1
(g2
g3
(I65114
F32.1129551
F34.8344412
(lp1480
tp1481
tp1482
Rp1483
sI65115
g1
(g2
g3
(I65115
F32.1127837
F34.8349325
(lp1484
tp1485
tp1486
Rp1487
sI65116
g1
(g2
g3
(I65116
F32.1127057
F34.8351712
(lp1488
tp1489
tp1490
Rp1491
sI18019
g1
(g2
g3
(I18019
F32.0586181
F34.7886219
(lp1492
tp1493
tp1494
Rp1495
sI18021
g1
(g2
g3
(I18021
F32.0586572
F34.7872532
(lp1496
tp1497
tp1498
Rp1499
sI40550
g1
(g2
g3
(I40550
F32.1537032
F34.8474013
(lp1500
tp1501
tp1502
Rp1503
sI40551
g1
(g2
g3
(I40551
F32.153656
F34.847421
(lp1504
tp1505
tp1506
Rp1507
sI21782
g1
(g2
g3
(I21782
F32.0711197
F34.77242
(lp1508
tp1509
tp1510
Rp1511
sI16663
g1
(g2
g3
(I16663
F32.1067407
F34.8048178
(lp1512
tp1513
tp1514
Rp1515
sI71322
g1
(g2
g3
(I71322
F32.0777361
F34.8320348
(lp1516
tp1517
tp1518
Rp1519
sI38558
g1
(g2
g3
(I38558
F32.0563249
F34.787051
(lp1520
tp1521
tp1522
Rp1523
sI38561
g1
(g2
g3
(I38561
F32.0554058
F34.7869316
(lp1524
tp1525
tp1526
Rp1527
sI16034
g1
(g2
g3
(I16034
F32.0676852
F34.7822508
(lp1528
tp1529
tp1530
Rp1531
sI38565
g1
(g2
g3
(I38565
F32.0559322
F34.787
(lp1532
tp1533
tp1534
Rp1535
sI16038
g1
(g2
g3
(I16038
F32.0670169
F34.7828648
(lp1536
tp1537
tp1538
Rp1539
sI16039
g1
(g2
g3
(I16039
F32.0675918
F34.782777
(lp1540
tp1541
tp1542
Rp1543
sI16040
g1
(g2
g3
(I16040
F32.0678973
F34.7827381
(lp1544
tp1545
tp1546
Rp1547
sI16041
g1
(g2
g3
(I16041
F32.0681127
F34.7826934
(lp1548
tp1549
tp1550
Rp1551
sI16042
g1
(g2
g3
(I16042
F32.0683036
F34.7826538
(lp1552
tp1553
tp1554
Rp1555
sI16043
g1
(g2
g3
(I16043
F32.0686577
F34.7825804
(lp1556
tp1557
tp1558
Rp1559
sI16046
g1
(g2
g3
(I16046
F32.068674
F34.782194
(lp1560
tp1561
tp1562
Rp1563
sI16047
g1
(g2
g3
(I16047
F32.0683733
F34.7821581
(lp1564
tp1565
tp1566
Rp1567
sI16048
g1
(g2
g3
(I16048
F32.0682578
F34.7821763
(lp1568
tp1569
tp1570
Rp1571
sI16049
g1
(g2
g3
(I16049
F32.0680672
F34.7822064
(lp1572
tp1573
tp1574
Rp1575
sI16050
g1
(g2
g3
(I16050
F32.0677098
F34.7822479
(lp1576
tp1577
tp1578
Rp1579
sI46781
g1
(g2
g3
(I46781
F32.0120892
F34.7664878
(lp1580
tp1581
tp1582
Rp1583
sI3779
g1
(g2
g3
(I3779
F32.1473844
F34.8038514
(lp1584
tp1585
tp1586
Rp1587
sI3780
g1
(g2
g3
(I3780
F32.1472945
F34.8041981
(lp1588
tp1589
tp1590
Rp1591
sI3781
g1
(g2
g3
(I3781
F32.1471866
F34.8046044
(lp1592
tp1593
tp1594
Rp1595
sI79566
g1
(g2
g3
(I79566
F32.0112046
F34.7927577
(lp1596
tp1597
tp1598
Rp1599
sI71391
g1
(g2
g3
(I71391
F32.0465802
F34.7892491
(lp1600
tp1601
tp1602
Rp1603
sI3809
g1
(g2
g3
(I3809
F32.1472976
F34.8047381
(lp1604
tp1605
tp1606
Rp1607
sI3810
g1
(g2
g3
(I3810
F32.1472686
F34.8046654
(lp1608
tp1609
tp1610
Rp1611
sI14051
g1
(g2
g3
(I14051
F31.9534017
F34.8070414
(lp1612
tp1613
tp1614
Rp1615
sI3812
g1
(g2
g3
(I3812
F32.1471355
F34.8046012
(lp1616
tp1617
tp1618
Rp1619
sI3813
g1
(g2
g3
(I3813
F32.1470866
F34.8046189
(lp1620
tp1621
tp1622
Rp1623
sI3814
g1
(g2
g3
(I3814
F32.1470591
F34.8046403
(lp1624
tp1625
tp1626
Rp1627
sI44775
g1
(g2
g3
(I44775
F32.0635352
F34.8483502
(lp1628
tp1629
tp1630
Rp1631
sI3819
g1
(g2
g3
(I3819
F32.1470794
F34.8049242
(lp1632
tp1633
tp1634
Rp1635
sI18160
g1
(g2
g3
(I18160
F32.0538777
F34.780016
(lp1636
tp1637
tp1638
Rp1639
sI50939
g1
(g2
g3
(I50939
F32.0715946
F34.8457045
(lp1640
tp1641
tp1642
Rp1643
sI44807
g1
(g2
g3
(I44807
F32.0639632
F34.8610097
(lp1644
tp1645
tp1646
Rp1647
sI46859
g1
(g2
g3
(I46859
F32.0102092
F34.7657067
(lp1648
tp1649
tp1650
Rp1651
sI29314
g1
(g2
g3
(I29314
F31.9037523
F34.8124418
(lp1652
tp1653
tp1654
Rp1655
sI38670
g1
(g2
g3
(I38670
F32.0464468
F34.7896689
(lp1656
tp1657
tp1658
Rp1659
sI38671
g1
(g2
g3
(I38671
F32.0464556
F34.7892436
(lp1660
tp1661
tp1662
Rp1663
sI29315
g1
(g2
g3
(I29315
F31.9038197
F34.8125723
(lp1664
tp1665
tp1666
Rp1667
sI46868
g1
(g2
g3
(I46868
F32.0093634
F34.7662186
(lp1668
tp1669
tp1670
Rp1671
sI29316
g1
(g2
g3
(I29316
F31.9038735
F34.8126734
(lp1672
tp1673
tp1674
Rp1675
sI16154
g1
(g2
g3
(I16154
F32.01299
F34.7834096
(lp1676
tp1677
tp1678
Rp1679
sI3867
g1
(g2
g3
(I3867
F32.0704664
F34.8063365
(lp1680
tp1681
tp1682
Rp1683
sI17029
g1
(g2
g3
(I17029
F32.0917991
F34.7944622
(lp1684
tp1685
tp1686
Rp1687
sI3877
g1
(g2
g3
(I3877
F32.0702531
F34.8042745
(lp1688
tp1689
tp1690
Rp1691
sI12076
g1
(g2
g3
(I12076
F31.8913879
F34.7718738
(lp1692
tp1693
tp1694
Rp1695
sI12077
g1
(g2
g3
(I12077
F31.8912993
F34.7718697
(lp1696
tp1697
tp1698
Rp1699
sI12078
g1
(g2
g3
(I12078
F31.8912085
F34.7719023
(lp1700
tp1701
tp1702
Rp1703
sI18228
g1
(g2
g3
(I18228
F32.0960183
F34.7904507
(lp1704
tp1705
tp1706
Rp1707
sI18229
g1
(g2
g3
(I18229
F32.096048
F34.7905081
(lp1708
tp1709
tp1710
Rp1711
sI18230
g1
(g2
g3
(I18230
F32.0960761
F34.7905281
(lp1712
tp1713
tp1714
Rp1715
sI65347
g1
(g2
g3
(I65347
F31.9724336
F34.8172865
(lp1716
tp1717
tp1718
Rp1719
sI81734
g1
(g2
g3
(I81734
F32.0618636
F34.8152849
(lp1720
tp1721
tp1722
Rp1723
sI71495
g1
(g2
g3
(I71495
F32.0771512
F34.8288831
(lp1724
tp1725
tp1726
Rp1727
sI36681
g1
(g2
g3
(I36681
F31.8839138
F34.8256551
(lp1728
tp1729
tp1730
Rp1731
sI44877
g1
(g2
g3
(I44877
F32.0249043
F34.9087522
(lp1732
tp1733
tp1734
Rp1735
sI24401
g1
(g2
g3
(I24401
F31.8863233
F34.8251593
(lp1736
tp1737
tp1738
Rp1739
sI26452
g1
(g2
g3
(I26452
F32.1092049
F34.8302175
(lp1740
tp1741
tp1742
Rp1743
sI26453
g1
(g2
g3
(I26453
F32.109202
F34.8301604
(lp1744
tp1745
tp1746
Rp1747
sI26454
g1
(g2
g3
(I26454
F32.1091933
F34.8301306
(lp1748
tp1749
tp1750
Rp1751
sI26455
g1
(g2
g3
(I26455
F32.1091658
F34.8300835
(lp1752
tp1753
tp1754
Rp1755
sI26456
g1
(g2
g3
(I26456
F32.1091278
F34.8300511
(lp1756
tp1757
tp1758
Rp1759
sI36704
g1
(g2
g3
(I36704
F31.8826775
F34.8260158
(lp1760
tp1761
tp1762
Rp1763
sI36705
g1
(g2
g3
(I36705
F31.8836502
F34.825732
(lp1764
tp1765
tp1766
Rp1767
sI36708
g1
(g2
g3
(I36708
F31.8828527
F34.8268567
(lp1768
tp1769
tp1770
Rp1771
sI28517
g1
(g2
g3
(I28517
F32.0675579
F34.7646258
(lp1772
tp1773
tp1774
Rp1775
sI28518
g1
(g2
g3
(I28518
F32.0673807
F34.764448
(lp1776
tp1777
tp1778
Rp1779
sI28519
g1
(g2
g3
(I28519
F32.0671972
F34.7643212
(lp1780
tp1781
tp1782
Rp1783
sI20328
g1
(g2
g3
(I20328
F32.1196496
F34.8262375
(lp1784
tp1785
tp1786
Rp1787
sI46961
g1
(g2
g3
(I46961
F32.0074031
F34.7619613
(lp1788
tp1789
tp1790
Rp1791
sI46962
g1
(g2
g3
(I46962
F32.0072464
F34.762947
(lp1792
tp1793
tp1794
Rp1795
sI74047
g1
(g2
g3
(I74047
F32.101068
F34.8486978
(lp1796
tp1797
tp1798
Rp1799
sI59266
g1
(g2
g3
(I59266
F31.929881
F34.7877294
(lp1800
tp1801
tp1802
Rp1803
sI59267
g1
(g2
g3
(I59267
F31.9299233
F34.7876846
(lp1804
tp1805
tp1806
Rp1807
sI59268
g1
(g2
g3
(I59268
F31.9299538
F34.7876091
(lp1808
tp1809
tp1810
Rp1811
sI59269
g1
(g2
g3
(I59269
F31.9299568
F34.7875422
(lp1812
tp1813
tp1814
Rp1815
sI20360
g1
(g2
g3
(I20360
F32.1084796
F34.8194656
(lp1816
tp1817
tp1818
Rp1819
sI20361
g1
(g2
g3
(I20361
F32.1084394
F34.8194601
(lp1820
tp1821
tp1822
Rp1823
sI20362
g1
(g2
g3
(I20362
F32.1083888
F34.8194777
(lp1824
tp1825
tp1826
Rp1827
sI20363
g1
(g2
g3
(I20363
F32.1083577
F34.8195081
(lp1828
tp1829
tp1830
Rp1831
sI14220
g1
(g2
g3
(I14220
F31.9532941
F34.8064352
(lp1832
tp1833
tp1834
Rp1835
sI83857
g1
(g2
g3
(I83857
F32.079775
F34.8091937
(lp1836
tp1837
tp1838
Rp1839
sI28562
g1
(g2
g3
(I28562
F32.0681955
F34.7667932
(lp1840
tp1841
tp1842
Rp1843
sI71326
g1
(g2
g3
(I71326
F32.075636
F34.8292543
(lp1844
tp1845
tp1846
Rp1847
sI83894
g1
(g2
g3
(I83894
F32.0790539
F34.8094067
(lp1848
tp1849
tp1850
Rp1851
sI47092
g1
(g2
g3
(I47092
F32.0203894
F34.7815699
(lp1852
tp1853
tp1854
Rp1855
sI20416
g1
(g2
g3
(I20416
F32.123288
F34.831511
(lp1856
tp1857
tp1858
Rp1859
sI20417
g1
(g2
g3
(I20417
F32.1232872
F34.831452
(lp1860
tp1861
tp1862
Rp1863
sI20418
g1
(g2
g3
(I20418
F32.1232691
F34.8314087
(lp1864
tp1865
tp1866
Rp1867
sI83907
g1
(g2
g3
(I83907
F32.0795113
F34.8074435
(lp1868
tp1869
tp1870
Rp1871
sI16332
g1
(g2
g3
(I16332
F32.0935728
F34.8763995
(lp1872
tp1873
tp1874
Rp1875
sI42962
g1
(g2
g3
(I42962
F32.0689611
F34.9167767
(lp1876
tp1877
tp1878
Rp1879
sI16037
g1
(g2
g3
(I16037
F32.0673369
F34.7828133
(lp1880
tp1881
tp1882
Rp1883
sI83947
g1
(g2
g3
(I83947
F32.0765
F34.8032428
(lp1884
tp1885
tp1886
Rp1887
sI79853
g1
(g2
g3
(I79853
F32.0706345
F34.8406136
(lp1888
tp1889
tp1890
Rp1891
sI79854
g1
(g2
g3
(I79854
F32.0708906
F34.8401474
(lp1892
tp1893
tp1894
Rp1895
sI12273
g1
(g2
g3
(I12273
F32.0153944
F34.7386035
(lp1896
tp1897
tp1898
Rp1899
sI83955
g1
(g2
g3
(I83955
F32.0765011
F34.8023505
(lp1900
tp1901
tp1902
Rp1903
sI69620
g1
(g2
g3
(I69620
F32.0010946
F34.8019283
(lp1904
tp1905
tp1906
Rp1907
sI69621
g1
(g2
g3
(I69621
F32.0010114
F34.8019095
(lp1908
tp1909
tp1910
Rp1911
sI69622
g1
(g2
g3
(I69622
F32.0009299
F34.8019268
(lp1912
tp1913
tp1914
Rp1915
sI69623
g1
(g2
g3
(I69623
F32.0008979
F34.8019444
(lp1916
tp1917
tp1918
Rp1919
sI69624
g1
(g2
g3
(I69624
F32.0008291
F34.8020144
(lp1920
tp1921
tp1922
Rp1923
sI69625
g1
(g2
g3
(I69625
F32.0007934
F34.8020928
(lp1924
tp1925
tp1926
Rp1927
sI26618
g1
(g2
g3
(I26618
F32.1160902
F34.8271029
(lp1928
tp1929
tp1930
Rp1931
sI10237
g1
(g2
g3
(I10237
F32.1536848
F34.8474049
(lp1932
tp1933
tp1934
Rp1935
sI26622
g1
(g2
g3
(I26622
F32.1163692
F34.8291202
(lp1936
tp1937
tp1938
Rp1939
sI67583
g1
(g2
g3
(I67583
F32.0820694
F34.8047347
(lp1940
tp1941
tp1942
Rp1943
s.