(dp0
I86020
ccopy_reg
_reconstructor
p1
(cways.graph
Junction
p2
c__builtin__
tuple
p3
(I86020
F31.996205
F34.8808592
(lp4
tp5
tp6
Rp7
sI11265
g1
(g2
g3
(I11265
F31.9740583
F34.7986193
(lp8
g1
(cways.graph
AbstractLink
p9
g3
((lp10
I11265
aI11362
aI11362
F61.0
I-1
tp11
tp12
Rp13
atp14
tp15
Rp16
sI36873
g1
(g2
g3
(I36873
F31.8932547
F34.8097819
(lp17
g1
(g9
g3
((lp18
I36873
aI36874
aI36874
F26.0
I-1
tp19
tp20
Rp21
ag1
(g9
g3
((lp22
I36873
aI36874
aI36875
aI36875
F31.0
I-1
tp23
tp24
Rp25
ag1
(g9
g3
((lp26
I36873
aI36874
aI36875
aI36876
aI36876
F74.0
I-1
tp27
tp28
Rp29
ag1
(g9
g3
((lp30
I36873
aI36874
aI36875
aI36876
aI36877
aI36877
F81.0
I-1
tp31
tp32
Rp33
ag1
(g9
g3
((lp34
I36873
aI36874
aI36875
aI36876
aI36877
aI36878
aI36878
F86.0
I-1
tp35
tp36
Rp37
ag1
(g9
g3
((lp38
I36873
aI36874
aI36875
aI36876
aI36877
aI36878
aI36879
aI36879
F91.0
I-1
tp39
tp40
Rp41
atp42
tp43
Rp44
sI36874
g1
(g2
g3
(I36874
F31.8930273
F34.8098477
(lp45
g1
(g9
g3
((lp46
I36874
aI36873
aI36873
F26.0
I-1
tp47
tp48
Rp49
ag1
(g9
g3
((lp50
I36874
aI36875
aI36875
F5.0
I-1
tp51
tp52
Rp53
ag1
(g9
g3
((lp54
I36874
aI36875
aI36876
aI36876
F48.0
I-1
tp55
tp56
Rp57
ag1
(g9
g3
((lp58
I36874
aI36875
aI36876
aI36877
aI36877
F55.0
I-1
tp59
tp60
Rp61
ag1
(g9
g3
((lp62
I36874
aI36875
aI36876
aI36877
aI36878
aI36878
F60.0
I-1
tp63
tp64
Rp65
ag1
(g9
g3
((lp66
I36874
aI36875
aI36876
aI36877
aI36878
aI36879
aI36879
F65.0
I-1
tp67
tp68
Rp69
atp70
tp71
Rp72
sI36875
g1
(g2
g3
(I36875
F31.8929773
F34.8098622
(lp73
g1
(g9
g3
((lp74
I36875
aI36874
aI36873
aI36873
F31.0
I-1
tp75
tp76
Rp77
ag1
(g9
g3
((lp78
I36875
aI36874
aI36874
F5.0
I-1
tp79
tp80
Rp81
ag1
(g9
g3
((lp82
I36875
aI36876
aI36876
F43.0
I-1
tp83
tp84
Rp85
ag1
(g9
g3
((lp86
I36875
aI36876
aI36877
aI36877
F50.0
I-1
tp87
tp88
Rp89
ag1
(g9
g3
((lp90
I36875
aI36876
aI36877
aI36878
aI36878
F55.0
I-1
tp91
tp92
Rp93
ag1
(g9
g3
((lp94
I36875
aI36876
aI36877
aI36878
aI36879
aI36879
F60.0
I-1
tp95
tp96
Rp97
atp98
tp99
Rp100
sI36876
g1
(g2
g3
(I36876
F31.8925913
F34.8099577
(lp101
g1
(g9
g3
((lp102
I36876
aI36875
aI36874
aI36873
aI36873
F74.0
I-1
tp103
tp104
Rp105
ag1
(g9
g3
((lp106
I36876
aI36875
aI36874
aI36874
F48.0
I-1
tp107
tp108
Rp109
ag1
(g9
g3
((lp110
I36876
aI36875
aI36875
F43.0
I-1
tp111
tp112
Rp113
ag1
(g9
g3
((lp114
I36876
aI36877
aI36877
F7.0
I-1
tp115
tp116
Rp117
ag1
(g9
g3
((lp118
I36876
aI36877
aI36878
aI36878
F12.0
I-1
tp119
tp120
Rp121
ag1
(g9
g3
((lp122
I36876
aI36877
aI36878
aI36879
aI36879
F17.0
I-1
tp123
tp124
Rp125
atp126
tp127
Rp128
sI36877
g1
(g2
g3
(I36877
F31.8925277
F34.8099689
(lp129
g1
(g9
g3
((lp130
I36877
aI36876
aI36875
aI36874
aI36873
aI36873
F81.0
I-1
tp131
tp132
Rp133
ag1
(g9
g3
((lp134
I36877
aI36876
aI36875
aI36874
aI36874
F55.0
I-1
tp135
tp136
Rp137
ag1
(g9
g3
((lp138
I36877
aI36876
aI36875
aI36875
F50.0
I-1
tp139
tp140
Rp141
ag1
(g9
g3
((lp142
I36877
aI36876
aI36876
F7.0
I-1
tp143
tp144
Rp145
ag1
(g9
g3
((lp146
I36877
aI36878
aI36878
F5.0
I-1
tp147
tp148
Rp149
ag1
(g9
g3
((lp150
I36877
aI36878
aI36879
aI36879
F10.0
I-1
tp151
tp152
Rp153
atp154
tp155
Rp156
sI36878
g1
(g2
g3
(I36878
F31.8924813
F34.8099587
(lp157
g1
(g9
g3
((lp158
I36878
aI36877
aI36876
aI36875
aI36874
aI36873
aI36873
F86.0
I-1
tp159
tp160
Rp161
ag1
(g9
g3
((lp162
I36878
aI36877
aI36876
aI36875
aI36874
aI36874
F60.0
I-1
tp163
tp164
Rp165
ag1
(g9
g3
((lp166
I36878
aI36877
aI36876
aI36875
aI36875
F55.0
I-1
tp167
tp168
Rp169
ag1
(g9
g3
((lp170
I36878
aI36877
aI36876
aI36876
F12.0
I-1
tp171
tp172
Rp173
ag1
(g9
g3
((lp174
I36878
aI36877
aI36877
F5.0
I-1
tp175
tp176
Rp177
ag1
(g9
g3
((lp178
I36878
aI36879
aI36879
F5.0
I-1
tp179
tp180
Rp181
atp182
tp183
Rp184
sI36879
g1
(g2
g3
(I36879
F31.8924355
F34.809926
(lp185
g1
(g9
g3
((lp186
I36879
aI36878
aI36877
aI36876
aI36875
aI36874
aI36873
aI36873
F91.0
I-1
tp187
tp188
Rp189
ag1
(g9
g3
((lp190
I36879
aI36878
aI36877
aI36876
aI36875
aI36874
aI36874
F65.0
I-1
tp191
tp192
Rp193
ag1
(g9
g3
((lp194
I36879
aI36878
aI36877
aI36876
aI36875
aI36875
F60.0
I-1
tp195
tp196
Rp197
ag1
(g9
g3
((lp198
I36879
aI36878
aI36877
aI36876
aI36876
F17.0
I-1
tp199
tp200
Rp201
ag1
(g9
g3
((lp202
I36879
aI36878
aI36877
aI36877
F10.0
I-1
tp203
tp204
Rp205
ag1
(g9
g3
((lp206
I36879
aI36878
aI36878
F5.0
I-1
tp207
tp208
Rp209
atp210
tp211
Rp212
sI53266
g1
(g2
g3
(I53266
F31.987955
F34.7611848
(lp213
tp214
tp215
Rp216
sI35843
g1
(g2
g3
(I35843
F32.0413415
F34.7754745
(lp217
tp218
tp219
Rp220
sI34836
g1
(g2
g3
(I34836
F31.9697354
F34.8925704
(lp221
tp222
tp223
Rp224
sI18460
g1
(g2
g3
(I18460
F32.1249583
F34.7927945
(lp225
tp226
tp227
Rp228
sI57377
g1
(g2
g3
(I57377
F31.9629996
F34.7805229
(lp229
g1
(g9
g3
((lp230
I57377
aI57422
aI57400
aI57400
F88.0
I-1
tp231
tp232
Rp233
ag1
(g9
g3
((lp234
I57377
aI57422
aI57422
F45.0
I-1
tp235
tp236
Rp237
atp238
tp239
Rp240
sI38949
g1
(g2
g3
(I38949
F32.1307392
F34.8483574
(lp241
g1
(g9
g3
((lp242
I38949
aI38960
aI38960
F92.0
I-1
tp243
tp244
Rp245
ag1
(g9
g3
((lp246
I38949
aI38960
aI38959
aI38959
F211.0
I-1
tp247
tp248
Rp249
atp250
tp251
Rp252
sI30760
g1
(g2
g3
(I30760
F31.8940855
F34.8087248
(lp253
tp254
tp255
Rp256
sI38959
g1
(g2
g3
(I38959
F32.1325232
F34.8491204
(lp257
g1
(g9
g3
((lp258
I38959
aI38960
aI38960
F119.0
I-1
tp259
tp260
Rp261
ag1
(g9
g3
((lp262
I38959
aI38960
aI38949
aI38949
F211.0
I-1
tp263
tp264
Rp265
atp266
tp267
Rp268
sI38960
g1
(g2
g3
(I38960
F32.1314839
F34.8487943
(lp269
g1
(g9
g3
((lp270
I38960
aI38949
aI38949
F92.0
I-1
tp271
tp272
Rp273
ag1
(g9
g3
((lp274
I38960
aI38959
aI38959
F119.0
I-1
tp275
tp276
Rp277
atp278
tp279
Rp280
sI6193
g1
(g2
g3
(I6193
F32.0972847
F34.7760489
(lp281
tp282
tp283
Rp284
sI86335
g1
(g2
g3
(I86335
F32.1868679
F34.8965694
(lp285
g1
(g9
g3
((lp286
I86335
aI86336
aI86336
F5.0
I-1
tp287
tp288
Rp289
ag1
(g9
g3
((lp290
I86335
aI86336
aI86337
aI86337
F10.0
I-1
tp291
tp292
Rp293
atp294
tp295
Rp296
sI18488
g1
(g2
g3
(I18488
F32.1314685
F34.7927053
(lp297
tp298
tp299
Rp300
sI81977
g1
(g2
g3
(I81977
F32.0817201
F34.806206
(lp301
g1
(g9
g3
((lp302
I81977
aI81979
aI81979
F6.0
I-1
tp303
tp304
Rp305
atp306
tp307
Rp308
sI81979
g1
(g2
g3
(I81979
F32.0817364
F34.8061417
(lp309
g1
(g9
g3
((lp310
I81979
aI81977
aI81977
F6.0
I-1
tp311
tp312
Rp313
atp314
tp315
Rp316
sI51267
g1
(g2
g3
(I51267
F32.0695392
F34.8392334
(lp317
g1
(g9
g3
((lp318
I51267
aI82738
aI82738
F116.0
I-1
tp319
tp320
Rp321
ag1
(g9
g3
((lp322
I51267
aI51268
aI51268
F9.0
I-1
tp323
tp324
Rp325
ag1
(g9
g3
((lp326
I51267
aI82738
aI79854
aI79853
aI79853
F224.0
I-1
tp327
tp328
Rp329
ag1
(g9
g3
((lp330
I51267
aI82738
aI79854
aI79854
F172.0
I-1
tp331
tp332
Rp333
atp334
tp335
Rp336
sI51268
g1
(g2
g3
(I51268
F32.0694611
F34.8391854
(lp337
g1
(g9
g3
((lp338
I51268
aI51267
aI82738
aI82738
F125.0
I-1
tp339
tp340
Rp341
ag1
(g9
g3
((lp342
I51268
aI51267
aI51267
F9.0
I-1
tp343
tp344
Rp345
ag1
(g9
g3
((lp346
I51268
aI51267
aI82738
aI79854
aI79853
aI79853
F233.0
I-1
tp347
tp348
Rp349
ag1
(g9
g3
((lp350
I51268
aI51267
aI82738
aI79854
aI79854
F181.0
I-1
tp351
tp352
Rp353
atp354
tp355
Rp356
sI53319
g1
(g2
g3
(I53319
F31.9286849
F34.7920564
(lp357
g1
(g9
g3
((lp358
I53319
aI53320
aI53320
F4.0
I-1
tp359
tp360
Rp361
ag1
(g9
g3
((lp362
I53319
aI53320
aI34965
aI53321
aI53321
F14.0
I-1
tp363
tp364
Rp365
ag1
(g9
g3
((lp366
I53319
aI53320
aI34965
aI34965
F10.0
I-1
tp367
tp368
Rp369
atp370
tp371
Rp372
sI53320
g1
(g2
g3
(I53320
F31.9286673
F34.7921035
(lp373
g1
(g9
g3
((lp374
I53320
aI34965
aI53321
aI53321
F10.0
I-1
tp375
tp376
Rp377
ag1
(g9
g3
((lp378
I53320
aI34965
aI34965
F6.0
I-1
tp379
tp380
Rp381
ag1
(g9
g3
((lp382
I53320
aI53319
aI53319
F4.0
I-1
tp383
tp384
Rp385
atp386
tp387
Rp388
sI53321
g1
(g2
g3
(I53321
F31.9286817
F34.7922158
(lp389
g1
(g9
g3
((lp390
I53321
aI34965
aI53320
aI53320
F10.0
I-1
tp391
tp392
Rp393
ag1
(g9
g3
((lp394
I53321
aI34965
aI34965
F4.0
I-1
tp395
tp396
Rp397
ag1
(g9
g3
((lp398
I53321
aI34965
aI53320
aI53319
aI53319
F14.0
I-1
tp399
tp400
Rp401
atp402
tp403
Rp404
sI57422
g1
(g2
g3
(I57422
F31.9633853
F34.7806852
(lp405
g1
(g9
g3
((lp406
I57422
aI57400
aI57400
F43.0
I-1
tp407
tp408
Rp409
ag1
(g9
g3
((lp410
I57422
aI57377
aI57377
F45.0
I-1
tp411
tp412
Rp413
atp414
tp415
Rp416
sI45136
g1
(g2
g3
(I45136
F32.1095206
F34.9656735
(lp417
tp418
tp419
Rp420
sI49237
g1
(g2
g3
(I49237
F32.0716047
F34.8457633
(lp421
g1
(g9
g3
((lp422
I49237
aI50939
aI50939
F5.0
I-1
tp423
tp424
Rp425
atp426
tp427
Rp428
sI22618
g1
(g2
g3
(I22618
F32.169796
F34.9068481
(lp429
tp430
tp431
Rp432
sI41067
g1
(g2
g3
(I41067
F32.0180928
F34.7756675
(lp433
g1
(g9
g3
((lp434
I41067
aI48131
aI48131
F8.0
I-1
tp435
tp436
Rp437
atp438
tp439
Rp440
sI24253
g1
(g2
g3
(I24253
F31.8819057
F34.7392191
(lp441
g1
(g9
g3
((lp442
I24253
aI25620
aI25620
F22.0
I-1
tp443
tp444
Rp445
atp446
tp447
Rp448
sI12403
g1
(g2
g3
(I12403
F32.018917
F34.7456684
(lp449
g1
(g9
g3
((lp450
I12403
aI22828
aI22828
F10.0
I-1
tp451
tp452
Rp453
atp454
tp455
Rp456
sI16504
g1
(g2
g3
(I16504
F32.0817603
F34.8035421
(lp457
g1
(g9
g3
((lp458
I16504
aI54017
aI54017
F55.0
I-1
tp459
tp460
Rp461
ag1
(g9
g3
((lp462
I16504
aI54017
aI54018
aI54018
F86.0
I-1
tp463
tp464
Rp465
atp466
tp467
Rp468
sI51321
g1
(g2
g3
(I51321
F32.0758481
F34.8291018
(lp469
tp470
tp471
Rp472
sI84093
g1
(g2
g3
(I84093
F32.0806479
F34.8229067
(lp473
tp474
tp475
Rp476
sI34965
g1
(g2
g3
(I34965
F31.928666
F34.7921677
(lp477
g1
(g9
g3
((lp478
I34965
aI53320
aI53320
F6.0
I-1
tp479
tp480
Rp481
ag1
(g9
g3
((lp482
I34965
aI53321
aI53321
F4.0
I-1
tp483
tp484
Rp485
ag1
(g9
g3
((lp486
I34965
aI53320
aI53319
aI53319
F10.0
I-1
tp487
tp488
Rp489
atp490
tp491
Rp492
sI30886
g1
(g2
g3
(I30886
F32.0935805
F34.9523377
(lp493
tp494
tp495
Rp496
sI45256
g1
(g2
g3
(I45256
F32.0666166
F34.8582351
(lp497
g1
(g9
g3
((lp498
I45256
aI45257
aI45257
F4.0
I-1
tp499
tp500
Rp501
ag1
(g9
g3
((lp502
I45256
aI45257
aI64950
aI64950
F24.0
I-1
tp503
tp504
Rp505
atp506
tp507
Rp508
sI45257
g1
(g2
g3
(I45257
F32.0666015
F34.8581939
(lp509
g1
(g9
g3
((lp510
I45257
aI45256
aI45256
F4.0
I-1
tp511
tp512
Rp513
ag1
(g9
g3
((lp514
I45257
aI64950
aI64950
F20.0
I-1
tp515
tp516
Rp517
atp518
tp519
Rp520
sI84178
g1
(g2
g3
(I84178
F31.8927575
F34.7984758
(lp521
g1
(g9
g3
((lp522
I84178
aI37968
aI37968
F9.0
I-1
tp523
tp524
Rp525
ag1
(g9
g3
((lp526
I84178
aI37229
aI37229
F119.0
I-1
tp527
tp528
Rp529
ag1
(g9
g3
((lp530
I84178
aI37229
aI37230
aI37230
F207.0
I-1
tp531
tp532
Rp533
atp534
tp535
Rp536
sI26836
g1
(g2
g3
(I26836
F32.1239416
F34.8257449
(lp537
tp538
tp539
Rp540
sI65759
g1
(g2
g3
(I65759
F32.107912
F34.810398
(lp541
g1
(g9
g3
((lp542
I65759
aI77030
aI77029
aI77028
aI77041
aI77040
aI77039
aI26015
aI77038
aI77037
aI77036
aI77035
aI77034
aI77026
aI77026
F28.0
I-1
tp543
tp544
Rp545
ag1
(g9
g3
((lp546
I65759
aI77030
aI77029
aI77028
aI77028
F6.0
I-1
tp547
tp548
Rp549
ag1
(g9
g3
((lp550
I65759
aI77030
aI77029
aI77029
F4.0
I-1
tp551
tp552
Rp553
ag1
(g9
g3
((lp554
I65759
aI77030
aI77030
F2.0
I-1
tp555
tp556
Rp557
ag1
(g9
g3
((lp558
I65759
aI77030
aI77029
aI77028
aI77041
aI77040
aI77039
aI26015
aI77038
aI77037
aI77036
aI77035
aI77034
aI77034
F26.0
I-1
tp559
tp560
Rp561
ag1
(g9
g3
((lp562
I65759
aI77030
aI77029
aI77028
aI77041
aI77040
aI77039
aI26015
aI77038
aI77037
aI77036
aI77035
aI77035
F22.0
I-1
tp563
tp564
Rp565
ag1
(g9
g3
((lp566
I65759
aI77030
aI77029
aI77028
aI77041
aI77040
aI77039
aI26015
aI77038
aI77037
aI77036
aI77036
F20.0
I-1
tp567
tp568
Rp569
ag1
(g9
g3
((lp570
I65759
aI77030
aI77029
aI77028
aI77041
aI77040
aI77039
aI26015
aI77038
aI77037
aI77037
F17.0
I-1
tp571
tp572
Rp573
ag1
(g9
g3
((lp574
I65759
aI77030
aI77029
aI77028
aI77041
aI77040
aI77039
aI26015
aI77038
aI77038
F15.0
I-1
tp575
tp576
Rp577
ag1
(g9
g3
((lp578
I65759
aI77030
aI77029
aI77028
aI77041
aI77040
aI77039
aI77039
F11.0
I-1
tp579
tp580
Rp581
ag1
(g9
g3
((lp582
I65759
aI77030
aI77029
aI77028
aI77041
aI77040
aI77040
F9.0
I-1
tp583
tp584
Rp585
ag1
(g9
g3
((lp586
I65759
aI77030
aI77029
aI77028
aI77041
aI77041
F7.0
I-1
tp587
tp588
Rp589
ag1
(g9
g3
((lp590
I65759
aI77030
aI77029
aI77028
aI77041
aI77040
aI77039
aI26015
aI26015
F14.0
I-1
tp591
tp592
Rp593
atp594
tp595
Rp596
sI30953
g1
(g2
g3
(I30953
F31.8909741
F34.8086988
(lp597
tp598
tp599
Rp600
sI14570
g1
(g2
g3
(I14570
F32.0956054
F34.7743958
(lp601
g1
(g9
g3
((lp602
I14570
aI5442
aI5442
F27.0
I-1
tp603
tp604
Rp605
ag1
(g9
g3
((lp606
I14570
aI5442
aI14571
aI14571
F65.0
I-1
tp607
tp608
Rp609
ag1
(g9
g3
((lp610
I14570
aI5442
aI14571
aI14572
aI14572
F81.0
I-1
tp611
tp612
Rp613
ag1
(g9
g3
((lp614
I14570
aI31055
aI31055
F31.0
I-1
tp615
tp616
Rp617
ag1
(g9
g3
((lp618
I14570
aI31055
aI5169
aI5169
F57.0
I-1
tp619
tp620
Rp621
ag1
(g9
g3
((lp622
I14570
aI5442
aI14571
aI14572
aI5172
aI5172
F207.0
I-1
tp623
tp624
Rp625
ag1
(g9
g3
((lp626
I14570
aI5173
aI5173
F76.0
I-1
tp627
tp628
Rp629
atp630
tp631
Rp632
sI14571
g1
(g2
g3
(I14571
F32.0950369
F34.7742131
(lp633
g1
(g9
g3
((lp634
I14571
aI5442
aI5442
F38.0
I-1
tp635
tp636
Rp637
ag1
(g9
g3
((lp638
I14571
aI5442
aI14570
aI14570
F65.0
I-1
tp639
tp640
Rp641
ag1
(g9
g3
((lp642
I14571
aI14572
aI14572
F16.0
I-1
tp643
tp644
Rp645
ag1
(g9
g3
((lp646
I14571
aI5442
aI14570
aI31055
aI31055
F96.0
I-1
tp647
tp648
Rp649
ag1
(g9
g3
((lp650
I14571
aI5442
aI14570
aI31055
aI5169
aI5169
F122.0
I-1
tp651
tp652
Rp653
ag1
(g9
g3
((lp654
I14571
aI14572
aI5172
aI5172
F142.0
I-1
tp655
tp656
Rp657
ag1
(g9
g3
((lp658
I14571
aI5442
aI14570
aI5173
aI5173
F141.0
I-1
tp659
tp660
Rp661
atp662
tp663
Rp664
sI14572
g1
(g2
g3
(I14572
F32.0948946
F34.7741619
(lp665
g1
(g9
g3
((lp666
I14572
aI14571
aI5442
aI5442
F54.0
I-1
tp667
tp668
Rp669
ag1
(g9
g3
((lp670
I14572
aI14571
aI5442
aI14570
aI14570
F81.0
I-1
tp671
tp672
Rp673
ag1
(g9
g3
((lp674
I14572
aI14571
aI14571
F16.0
I-1
tp675
tp676
Rp677
ag1
(g9
g3
((lp678
I14572
aI14571
aI5442
aI14570
aI31055
aI31055
F112.0
I-1
tp679
tp680
Rp681
ag1
(g9
g3
((lp682
I14572
aI14571
aI5442
aI14570
aI31055
aI5169
aI5169
F138.0
I-1
tp683
tp684
Rp685
ag1
(g9
g3
((lp686
I14572
aI5172
aI5172
F126.0
I-1
tp687
tp688
Rp689
ag1
(g9
g3
((lp690
I14572
aI14571
aI5442
aI14570
aI5173
aI5173
F157.0
I-1
tp691
tp692
Rp693
atp694
tp695
Rp696
sI10499
g1
(g2
g3
(I10499
F32.1083529
F34.96523
(lp697
g1
(g9
g3
((lp698
I10499
aI10505
aI10505
F4.0
I-1
tp699
tp700
Rp701
atp702
tp703
Rp704
sI10505
g1
(g2
g3
(I10505
F32.1083163
F34.9652364
(lp705
g1
(g9
g3
((lp706
I10505
aI10499
aI10499
F4.0
I-1
tp707
tp708
Rp709
atp710
tp711
Rp712
sI82186
g1
(g2
g3
(I82186
F32.086853
F34.8201464
(lp713
g1
(g9
g3
((lp714
I82186
aI82187
aI82188
aI82189
aI2282
aI2282
F196.0
I-1
tp715
tp716
Rp717
ag1
(g9
g3
((lp718
I82186
aI82187
aI82187
F71.0
I-1
tp719
tp720
Rp721
ag1
(g9
g3
((lp722
I82186
aI82187
aI82188
aI82188
F136.0
I-1
tp723
tp724
Rp725
ag1
(g9
g3
((lp726
I82186
aI82187
aI82188
aI82189
aI82189
F179.0
I-1
tp727
tp728
Rp729
ag1
(g9
g3
((lp730
I82186
aI82187
aI82188
aI82189
aI2282
aI82190
aI82190
F278.0
I-1
tp731
tp732
Rp733
ag1
(g9
g3
((lp734
I82186
aI82187
aI82188
aI82189
aI2282
aI82190
aI82191
aI82191
F333.0
I-1
tp735
tp736
Rp737
ag1
(g9
g3
((lp738
I82186
aI82187
aI82188
aI82189
aI2282
aI82190
aI82191
aI82192
aI82192
F371.0
I-1
tp739
tp740
Rp741
ag1
(g9
g3
((lp742
I82186
aI68787
aI68787
F180.0
I-1
tp743
tp744
Rp745
ag1
(g9
g3
((lp746
I82186
aI68787
aI68788
aI68788
F269.0
I-1
tp747
tp748
Rp749
atp750
tp751
Rp752
sI82187
g1
(g2
g3
(I82187
F32.087483
F34.820302
(lp753
g1
(g9
g3
((lp754
I82187
aI82188
aI82189
aI2282
aI2282
F125.0
I-1
tp755
tp756
Rp757
ag1
(g9
g3
((lp758
I82187
aI82188
aI82188
F65.0
I-1
tp759
tp760
Rp761
ag1
(g9
g3
((lp762
I82187
aI82188
aI82189
aI82189
F108.0
I-1
tp763
tp764
Rp765
ag1
(g9
g3
((lp766
I82187
aI82188
aI82189
aI2282
aI82190
aI82190
F207.0
I-1
tp767
tp768
Rp769
ag1
(g9
g3
((lp770
I82187
aI82188
aI82189
aI2282
aI82190
aI82191
aI82191
F262.0
I-1
tp771
tp772
Rp773
ag1
(g9
g3
((lp774
I82187
aI82188
aI82189
aI2282
aI82190
aI82191
aI82192
aI82192
F300.0
I-1
tp775
tp776
Rp777
ag1
(g9
g3
((lp778
I82187
aI82186
aI68787
aI68787
F251.0
I-1
tp779
tp780
Rp781
ag1
(g9
g3
((lp782
I82187
aI82186
aI68787
aI68788
aI68788
F340.0
I-1
tp783
tp784
Rp785
ag1
(g9
g3
((lp786
I82187
aI82186
aI82186
F71.0
I-1
tp787
tp788
Rp789
atp790
tp791
Rp792
sI82188
g1
(g2
g3
(I82188
F32.088046
F34.820498
(lp793
g1
(g9
g3
((lp794
I82188
aI82187
aI82186
aI82186
F136.0
I-1
tp795
tp796
Rp797
ag1
(g9
g3
((lp798
I82188
aI82187
aI82187
F65.0
I-1
tp799
tp800
Rp801
ag1
(g9
g3
((lp802
I82188
aI82189
aI82189
F43.0
I-1
tp803
tp804
Rp805
ag1
(g9
g3
((lp806
I82188
aI82189
aI2282
aI82190
aI82190
F142.0
I-1
tp807
tp808
Rp809
ag1
(g9
g3
((lp810
I82188
aI82189
aI2282
aI82190
aI82191
aI82191
F197.0
I-1
tp811
tp812
Rp813
ag1
(g9
g3
((lp814
I82188
aI82189
aI2282
aI82190
aI82191
aI82192
aI82192
F235.0
I-1
tp815
tp816
Rp817
ag1
(g9
g3
((lp818
I82188
aI82187
aI82186
aI68787
aI68787
F316.0
I-1
tp819
tp820
Rp821
ag1
(g9
g3
((lp822
I82188
aI82187
aI82186
aI68787
aI68788
aI68788
F405.0
I-1
tp823
tp824
Rp825
ag1
(g9
g3
((lp826
I82188
aI82189
aI2282
aI2282
F60.0
I-1
tp827
tp828
Rp829
atp830
tp831
Rp832
sI82189
g1
(g2
g3
(I82189
F32.08843
F34.820586
(lp833
g1
(g9
g3
((lp834
I82189
aI2282
aI2282
F17.0
I-1
tp835
tp836
Rp837
ag1
(g9
g3
((lp838
I82189
aI82188
aI82187
aI82187
F108.0
I-1
tp839
tp840
Rp841
ag1
(g9
g3
((lp842
I82189
aI82188
aI82188
F43.0
I-1
tp843
tp844
Rp845
ag1
(g9
g3
((lp846
I82189
aI2282
aI82190
aI82190
F99.0
I-1
tp847
tp848
Rp849
ag1
(g9
g3
((lp850
I82189
aI2282
aI82190
aI82191
aI82191
F154.0
I-1
tp851
tp852
Rp853
ag1
(g9
g3
((lp854
I82189
aI2282
aI82190
aI82191
aI82192
aI82192
F192.0
I-1
tp855
tp856
Rp857
ag1
(g9
g3
((lp858
I82189
aI82188
aI82187
aI82186
aI68787
aI68787
F359.0
I-1
tp859
tp860
Rp861
ag1
(g9
g3
((lp862
I82189
aI82188
aI82187
aI82186
aI68787
aI68788
aI68788
F448.0
I-1
tp863
tp864
Rp865
ag1
(g9
g3
((lp866
I82189
aI82188
aI82187
aI82186
aI82186
F179.0
I-1
tp867
tp868
Rp869
atp870
tp871
Rp872
sI82190
g1
(g2
g3
(I82190
F32.089326
F34.820543
(lp873
g1
(g9
g3
((lp874
I82190
aI2282
aI2282
F82.0
I-1
tp875
tp876
Rp877
ag1
(g9
g3
((lp878
I82190
aI2282
aI82189
aI82188
aI82187
aI82187
F207.0
I-1
tp879
tp880
Rp881
ag1
(g9
g3
((lp882
I82190
aI2282
aI82189
aI82188
aI82188
F142.0
I-1
tp883
tp884
Rp885
ag1
(g9
g3
((lp886
I82190
aI2282
aI82189
aI82189
F99.0
I-1
tp887
tp888
Rp889
ag1
(g9
g3
((lp890
I82190
aI82191
aI82191
F55.0
I-1
tp891
tp892
Rp893
ag1
(g9
g3
((lp894
I82190
aI82191
aI82192
aI82192
F93.0
I-1
tp895
tp896
Rp897
ag1
(g9
g3
((lp898
I82190
aI2282
aI82189
aI82188
aI82187
aI82186
aI68787
aI68787
F458.0
I-1
tp899
tp900
Rp901
ag1
(g9
g3
((lp902
I82190
aI2282
aI82189
aI82188
aI82187
aI82186
aI68787
aI68788
aI68788
F547.0
I-1
tp903
tp904
Rp905
ag1
(g9
g3
((lp906
I82190
aI2282
aI82189
aI82188
aI82187
aI82186
aI82186
F278.0
I-1
tp907
tp908
Rp909
atp910
tp911
Rp912
sI82191
g1
(g2
g3
(I82191
F32.0898052
F34.8203826
(lp913
g1
(g9
g3
((lp914
I82191
aI82190
aI2282
aI2282
F137.0
I-1
tp915
tp916
Rp917
ag1
(g9
g3
((lp918
I82191
aI82190
aI2282
aI82189
aI82188
aI82187
aI82187
F262.0
I-1
tp919
tp920
Rp921
ag1
(g9
g3
((lp922
I82191
aI82190
aI2282
aI82189
aI82188
aI82188
F197.0
I-1
tp923
tp924
Rp925
ag1
(g9
g3
((lp926
I82191
aI82190
aI2282
aI82189
aI82189
F154.0
I-1
tp927
tp928
Rp929
ag1
(g9
g3
((lp930
I82191
aI82190
aI82190
F55.0
I-1
tp931
tp932
Rp933
ag1
(g9
g3
((lp934
I82191
aI82192
aI82192
F38.0
I-1
tp935
tp936
Rp937
ag1
(g9
g3
((lp938
I82191
aI82190
aI2282
aI82189
aI82188
aI82187
aI82186
aI68787
aI68787
F513.0
I-1
tp939
tp940
Rp941
ag1
(g9
g3
((lp942
I82191
aI82190
aI2282
aI82189
aI82188
aI82187
aI82186
aI68787
aI68788
aI68788
F602.0
I-1
tp943
tp944
Rp945
ag1
(g9
g3
((lp946
I82191
aI82190
aI2282
aI82189
aI82188
aI82187
aI82186
aI82186
F333.0
I-1
tp947
tp948
Rp949
atp950
tp951
Rp952
sI82192
g1
(g2
g3
(I82192
F32.09013
F34.820238
(lp953
g1
(g9
g3
((lp954
I82192
aI82191
aI82190
aI2282
aI2282
F175.0
I-1
tp955
tp956
Rp957
ag1
(g9
g3
((lp958
I82192
aI82191
aI82190
aI2282
aI82189
aI82188
aI82187
aI82187
F300.0
I-1
tp959
tp960
Rp961
ag1
(g9
g3
((lp962
I82192
aI82191
aI82190
aI2282
aI82189
aI82188
aI82188
F235.0
I-1
tp963
tp964
Rp965
ag1
(g9
g3
((lp966
I82192
aI82191
aI82190
aI2282
aI82189
aI82189
F192.0
I-1
tp967
tp968
Rp969
ag1
(g9
g3
((lp970
I82192
aI82191
aI82190
aI82190
F93.0
I-1
tp971
tp972
Rp973
ag1
(g9
g3
((lp974
I82192
aI82191
aI82191
F38.0
I-1
tp975
tp976
Rp977
ag1
(g9
g3
((lp978
I82192
aI82191
aI82190
aI2282
aI82189
aI82188
aI82187
aI82186
aI68787
aI68787
F551.0
I-1
tp979
tp980
Rp981
ag1
(g9
g3
((lp982
I82192
aI82191
aI82190
aI2282
aI82189
aI82188
aI82187
aI82186
aI68787
aI68788
aI68788
F640.0
I-1
tp983
tp984
Rp985
ag1
(g9
g3
((lp986
I82192
aI82191
aI82190
aI2282
aI82189
aI82188
aI82187
aI82186
aI82186
F371.0
I-1
tp987
tp988
Rp989
atp990
tp991
Rp992
sI82193
g1
(g2
g3
(I82193
F32.0793476
F34.8156776
(lp993
g1
(g9
g3
((lp994
I82193
aI82194
aI82194
F32.0
I-1
tp995
tp996
Rp997
ag1
(g9
g3
((lp998
I82193
aI5467
aI5467
F41.0
I-1
tp999
tp1000
Rp1001
ag1
(g9
g3
((lp1002
I82193
aI82194
aI82199
aI82199
F139.0
I-1
tp1003
tp1004
Rp1005
atp1006
tp1007
Rp1008
sI82194
g1
(g2
g3
(I82194
F32.0794543
F34.8160032
(lp1009
g1
(g9
g3
((lp1010
I82194
aI82193
aI82193
F32.0
I-1
tp1011
tp1012
Rp1013
ag1
(g9
g3
((lp1014
I82194
aI82193
aI5467
aI5467
F73.0
I-1
tp1015
tp1016
Rp1017
ag1
(g9
g3
((lp1018
I82194
aI82199
aI82199
F107.0
I-1
tp1019
tp1020
Rp1021
atp1022
tp1023
Rp1024
sI82199
g1
(g2
g3
(I82199
F32.0799318
F34.8169909
(lp1025
g1
(g9
g3
((lp1026
I82199
aI82194
aI82193
aI82193
F139.0
I-1
tp1027
tp1028
Rp1029
ag1
(g9
g3
((lp1030
I82199
aI82194
aI82194
F107.0
I-1
tp1031
tp1032
Rp1033
ag1
(g9
g3
((lp1034
I82199
aI82194
aI82193
aI5467
aI5467
F180.0
I-1
tp1035
tp1036
Rp1037
atp1038
tp1039
Rp1040
sI16664
g1
(g2
g3
(I16664
F32.1068101
F34.8047977
(lp1041
g1
(g9
g3
((lp1042
I16664
aI16665
aI16665
F5.0
I-1
tp1043
tp1044
Rp1045
ag1
(g9
g3
((lp1046
I16664
aI16665
aI16666
aI16666
F10.0
I-1
tp1047
tp1048
Rp1049
ag1
(g9
g3
((lp1050
I16664
aI16663
aI16663
F7.0
I-1
tp1051
tp1052
Rp1053
atp1054
tp1055
Rp1056
sI16665
g1
(g2
g3
(I16665
F32.106851
F34.8047605
(lp1057
g1
(g9
g3
((lp1058
I16665
aI16664
aI16664
F5.0
I-1
tp1059
tp1060
Rp1061
ag1
(g9
g3
((lp1062
I16665
aI16666
aI16666
F5.0
I-1
tp1063
tp1064
Rp1065
ag1
(g9
g3
((lp1066
I16665
aI16664
aI16663
aI16663
F12.0
I-1
tp1067
tp1068
Rp1069
atp1070
tp1071
Rp1072
sI16666
g1
(g2
g3
(I16666
F32.1068786
F34.8047091
(lp1073
g1
(g9
g3
((lp1074
I16666
aI16665
aI16664
aI16664
F10.0
I-1
tp1075
tp1076
Rp1077
ag1
(g9
g3
((lp1078
I16666
aI16665
aI16665
F5.0
I-1
tp1079
tp1080
Rp1081
ag1
(g9
g3
((lp1082
I16666
aI16665
aI16664
aI16663
aI16663
F17.0
I-1
tp1083
tp1084
Rp1085
atp1086
tp1087
Rp1088
sI45341
g1
(g2
g3
(I45341
F32.0061271
F34.8267476
(lp1089
tp1090
tp1091
Rp1092
sI90400
g1
(g2
g3
(I90400
F31.9008883
F34.8197044
(lp1093
g1
(g9
g3
((lp1094
I90400
aI92882
aI92882
F4.0
I-1
tp1095
tp1096
Rp1097
atp1098
tp1099
Rp1100
sI94503
g1
(g2
g3
(I94503
F32.0533018
F34.770444
(lp1101
g1
(g9
g3
((lp1102
I94503
aI33909
aI33873
aI33872
aI33872
F231.0
I-1
tp1103
tp1104
Rp1105
ag1
(g9
g3
((lp1106
I94503
aI33909
aI33873
aI33873
F171.0
I-1
tp1107
tp1108
Rp1109
ag1
(g9
g3
((lp1110
I94503
aI33909
aI33909
F36.0
I-1
tp1111
tp1112
Rp1113
atp1114
tp1115
Rp1116
sI16683
g1
(g2
g3
(I16683
F32.0830478
F34.7805621
(lp1117
g1
(g9
g3
((lp1118
I16683
aI72524
aI72524
F73.0
I-1
tp1119
tp1120
Rp1121
atp1122
tp1123
Rp1124
sI22828
g1
(g2
g3
(I22828
F32.0189346
F34.7457809
(lp1125
g1
(g9
g3
((lp1126
I22828
aI12403
aI12403
F10.0
I-1
tp1127
tp1128
Rp1129
atp1130
tp1131
Rp1132
sI84270
g1
(g2
g3
(I84270
F32.0806982
F34.8208001
(lp1133
tp1134
tp1135
Rp1136
sI96567
g1
(g2
g3
(I96567
F32.0887738
F34.8279407
(lp1137
g1
(g9
g3
((lp1138
I96567
aI96568
aI96568
F10.0
I-1
tp1139
tp1140
Rp1141
atp1142
tp1143
Rp1144
sI96568
g1
(g2
g3
(I96568
F32.0888155
F34.8280447
(lp1145
g1
(g9
g3
((lp1146
I96568
aI96567
aI96567
F10.0
I-1
tp1147
tp1148
Rp1149
atp1150
tp1151
Rp1152
sI74046
g1
(g2
g3
(I74046
F32.100613
F34.8485246
(lp1153
g1
(g9
g3
((lp1154
I74046
aI74047
aI74047
F53.0
I-1
tp1155
tp1156
Rp1157
ag1
(g9
g3
((lp1158
I74046
aI27918
aI27918
F17.0
I-1
tp1159
tp1160
Rp1161
ag1
(g9
g3
((lp1162
I74046
aI27918
aI27919
aI27919
F48.0
I-1
tp1163
tp1164
Rp1165
atp1166
tp1167
Rp1168
sI31039
g1
(g2
g3
(I31039
F32.1130371
F34.8341774
(lp1169
g1
(g9
g3
((lp1170
I31039
aI65113
aI65113
F20.0
I-1
tp1171
tp1172
Rp1173
ag1
(g9
g3
((lp1174
I31039
aI65114
aI65114
F26.0
I-1
tp1175
tp1176
Rp1177
ag1
(g9
g3
((lp1178
I31039
aI65114
aI65115
aI65115
F76.0
I-1
tp1179
tp1180
Rp1181
ag1
(g9
g3
((lp1182
I31039
aI65114
aI65115
aI65116
aI65116
F100.0
I-1
tp1183
tp1184
Rp1185
atp1186
tp1187
Rp1188
sI86336
g1
(g2
g3
(I86336
F32.1868698
F34.8965075
(lp1189
g1
(g9
g3
((lp1190
I86336
aI86337
aI86337
F5.0
I-1
tp1191
tp1192
Rp1193
ag1
(g9
g3
((lp1194
I86336
aI86335
aI86335
F5.0
I-1
tp1195
tp1196
Rp1197
atp1198
tp1199
Rp1200
sI86337
g1
(g2
g3
(I86337
F32.1868533
F34.8964476
(lp1201
g1
(g9
g3
((lp1202
I86337
aI86336
aI86336
F5.0
I-1
tp1203
tp1204
Rp1205
ag1
(g9
g3
((lp1206
I86337
aI86336
aI86335
aI86335
F10.0
I-1
tp1207
tp1208
Rp1209
atp1210
tp1211
Rp1212
sI45380
g1
(g2
g3
(I45380
F32.0869954
F34.8754994
(lp1213
tp1214
tp1215
Rp1216
sI37194
g1
(g2
g3
(I37194
F31.8822132
F34.8030835
(lp1217
g1
(g9
g3
((lp1218
I37194
aI37195
aI37195
F4.0
I-1
tp1219
tp1220
Rp1221
ag1
(g9
g3
((lp1222
I37194
aI37195
aI37196
aI37196
F8.0
I-1
tp1223
tp1224
Rp1225
atp1226
tp1227
Rp1228
sI37195
g1
(g2
g3
(I37195
F31.8822484
F34.8030581
(lp1229
g1
(g9
g3
((lp1230
I37195
aI37194
aI37194
F4.0
I-1
tp1231
tp1232
Rp1233
ag1
(g9
g3
((lp1234
I37195
aI37196
aI37196
F4.0
I-1
tp1235
tp1236
Rp1237
atp1238
tp1239
Rp1240
sI37196
g1
(g2
g3
(I37196
F31.8822742
F34.80302
(lp1241
g1
(g9
g3
((lp1242
I37196
aI37195
aI37194
aI37194
F8.0
I-1
tp1243
tp1244
Rp1245
ag1
(g9
g3
((lp1246
I37196
aI37195
aI37195
F4.0
I-1
tp1247
tp1248
Rp1249
atp1250
tp1251
Rp1252
sI31055
g1
(g2
g3
(I31055
F32.0956422
F34.7740642
(lp1253
g1
(g9
g3
((lp1254
I31055
aI14570
aI5442
aI5442
F58.0
I-1
tp1255
tp1256
Rp1257
ag1
(g9
g3
((lp1258
I31055
aI14570
aI14570
F31.0
I-1
tp1259
tp1260
Rp1261
ag1
(g9
g3
((lp1262
I31055
aI14570
aI5442
aI14571
aI14571
F96.0
I-1
tp1263
tp1264
Rp1265
ag1
(g9
g3
((lp1266
I31055
aI14570
aI5442
aI14571
aI14572
aI14572
F112.0
I-1
tp1267
tp1268
Rp1269
ag1
(g9
g3
((lp1270
I31055
aI5169
aI5169
F26.0
I-1
tp1271
tp1272
Rp1273
ag1
(g9
g3
((lp1274
I31055
aI14570
aI5442
aI14571
aI14572
aI5172
aI5172
F238.0
I-1
tp1275
tp1276
Rp1277
ag1
(g9
g3
((lp1278
I31055
aI14570
aI5173
aI5173
F107.0
I-1
tp1279
tp1280
Rp1281
atp1282
tp1283
Rp1284
sI57400
g1
(g2
g3
(I57400
F31.9637328
F34.7809051
(lp1285
g1
(g9
g3
((lp1286
I57400
aI57422
aI57377
aI57377
F88.0
I-1
tp1287
tp1288
Rp1289
ag1
(g9
g3
((lp1290
I57400
aI57422
aI57422
F43.0
I-1
tp1291
tp1292
Rp1293
atp1294
tp1295
Rp1296
sI3811
g1
(g2
g3
(I3811
F32.1472303
F34.8046254
(lp1297
g1
(g9
g3
((lp1298
I3811
aI3810
aI3809
aI3809
F12.0
I-1
tp1299
tp1300
Rp1301
ag1
(g9
g3
((lp1302
I3811
aI3810
aI3810
F5.0
I-1
tp1303
tp1304
Rp1305
ag1
(g9
g3
((lp1306
I3811
aI3781
aI3812
aI3812
F10.0
I-1
tp1307
tp1308
Rp1309
ag1
(g9
g3
((lp1310
I3811
aI3781
aI3781
F5.0
I-1
tp1311
tp1312
Rp1313
ag1
(g9
g3
((lp1314
I3811
aI3781
aI3812
aI3813
aI3814
aI3814
F18.0
I-1
tp1315
tp1316
Rp1317
ag1
(g9
g3
((lp1318
I3811
aI3781
aI3812
aI3813
aI3814
aI3815
aI3815
F23.0
I-1
tp1319
tp1320
Rp1321
ag1
(g9
g3
((lp1322
I3811
aI3781
aI3780
aI3779
aI3779
F79.0
I-1
tp1323
tp1324
Rp1325
ag1
(g9
g3
((lp1326
I3811
aI3781
aI3780
aI3780
F45.0
I-1
tp1327
tp1328
Rp1329
ag1
(g9
g3
((lp1330
I3811
aI3781
aI3812
aI3813
aI3813
F15.0
I-1
tp1331
tp1332
Rp1333
atp1334
tp1335
Rp1336
sI3815
g1
(g2
g3
(I3815
F32.1470261
F34.8046865
(lp1337
g1
(g9
g3
((lp1338
I3815
aI3814
aI3813
aI3812
aI3781
aI3811
aI3810
aI3809
aI3809
F35.0
I-1
tp1339
tp1340
Rp1341
ag1
(g9
g3
((lp1342
I3815
aI3814
aI3813
aI3812
aI3781
aI3811
aI3810
aI3810
F28.0
I-1
tp1343
tp1344
Rp1345
ag1
(g9
g3
((lp1346
I3815
aI3814
aI3813
aI3812
aI3781
aI3811
aI3811
F23.0
I-1
tp1347
tp1348
Rp1349
ag1
(g9
g3
((lp1350
I3815
aI3814
aI3813
aI3812
aI3812
F13.0
I-1
tp1351
tp1352
Rp1353
ag1
(g9
g3
((lp1354
I3815
aI3814
aI3813
aI3812
aI3781
aI3781
F18.0
I-1
tp1355
tp1356
Rp1357
ag1
(g9
g3
((lp1358
I3815
aI3814
aI3814
F5.0
I-1
tp1359
tp1360
Rp1361
ag1
(g9
g3
((lp1362
I3815
aI3814
aI3813
aI3812
aI3781
aI3780
aI3779
aI3779
F92.0
I-1
tp1363
tp1364
Rp1365
ag1
(g9
g3
((lp1366
I3815
aI3814
aI3813
aI3812
aI3781
aI3780
aI3780
F58.0
I-1
tp1367
tp1368
Rp1369
ag1
(g9
g3
((lp1370
I3815
aI3814
aI3813
aI3813
F8.0
I-1
tp1371
tp1372
Rp1373
atp1374
tp1375
Rp1376
sI37229
g1
(g2
g3
(I37229
F31.8917168
F34.7981736
(lp1377
g1
(g9
g3
((lp1378
I37229
aI84178
aI37968
aI37968
F128.0
I-1
tp1379
tp1380
Rp1381
ag1
(g9
g3
((lp1382
I37229
aI84178
aI84178
F119.0
I-1
tp1383
tp1384
Rp1385
ag1
(g9
g3
((lp1386
I37229
aI37230
aI37230
F88.0
I-1
tp1387
tp1388
Rp1389
atp1390
tp1391
Rp1392
sI37230
g1
(g2
g3
(I37230
F31.8909336
F34.7979954
(lp1393
g1
(g9
g3
((lp1394
I37230
aI37229
aI84178
aI37968
aI37968
F216.0
I-1
tp1395
tp1396
Rp1397
ag1
(g9
g3
((lp1398
I37230
aI37229
aI84178
aI84178
F207.0
I-1
tp1399
tp1400
Rp1401
ag1
(g9
g3
((lp1402
I37230
aI37229
aI37229
F88.0
I-1
tp1403
tp1404
Rp1405
atp1406
tp1407
Rp1408
sI26003
g1
(g2
g3
(I26003
F32.1166329
F34.8152293
(lp1409
g1
(g9
g3
((lp1410
I26003
aI25953
aI25953
F3.0
I-1
tp1411
tp1412
Rp1413
ag1
(g9
g3
((lp1414
I26003
aI26002
aI26002
F3.0
I-1
tp1415
tp1416
Rp1417
ag1
(g9
g3
((lp1418
I26003
aI25953
aI25990
aI25990
F6.0
I-1
tp1419
tp1420
Rp1421
ag1
(g9
g3
((lp1422
I26003
aI25953
aI25990
aI25991
aI25991
F9.0
I-1
tp1423
tp1424
Rp1425
atp1426
tp1427
Rp1428
sI8567
g1
(g2
g3
(I8567
F31.968077
F34.7895619
(lp1429
tp1430
tp1431
Rp1432
sI4476
g1
(g2
g3
(I4476
F32.0822724
F34.7918897
(lp1433
g1
(g9
g3
((lp1434
I4476
aI17184
aI17184
F127.0
I-1
tp1435
tp1436
Rp1437
ag1
(g9
g3
((lp1438
I4476
aI5603
aI5603
F50.0
I-1
tp1439
tp1440
Rp1441
atp1442
tp1443
Rp1444
sI381
g1
(g2
g3
(I381
F32.0865667
F34.7912277
(lp1445
g1
(g9
g3
((lp1446
I381
aI382
aI382
F8.0
I-1
tp1447
tp1448
Rp1449
atp1450
tp1451
Rp1452
sI382
g1
(g2
g3
(I382
F32.0866428
F34.7912415
(lp1453
g1
(g9
g3
((lp1454
I382
aI381
aI381
F8.0
I-1
tp1455
tp1456
Rp1457
atp1458
tp1459
Rp1460
sI47489
g1
(g2
g3
(I47489
F32.0101511
F34.7663083
(lp1461
g1
(g9
g3
((lp1462
I47489
aI46859
aI46859
F57.0
I-1
tp1463
tp1464
Rp1465
atp1466
tp1467
Rp1468
sI29058
g1
(g2
g3
(I29058
F31.9952779
F34.9028309
(lp1469
tp1470
tp1471
Rp1472
sI18832
g1
(g2
g3
(I18832
F32.0657229
F34.7653721
(lp1473
tp1474
tp1475
Rp1476
sI18840
g1
(g2
g3
(I18840
F32.0667327
F34.7639491
(lp1477
g1
(g9
g3
((lp1478
I18840
aI28519
aI28518
aI28517
aI28517
F110.0
I-1
tp1479
tp1480
Rp1481
ag1
(g9
g3
((lp1482
I18840
aI28519
aI28518
aI28518
F85.0
I-1
tp1483
tp1484
Rp1485
ag1
(g9
g3
((lp1486
I18840
aI28519
aI28519
F62.0
I-1
tp1487
tp1488
Rp1489
atp1490
tp1491
Rp1492
sI415
g1
(g2
g3
(I415
F32.0960316
F34.7904861
(lp1493
g1
(g9
g3
((lp1494
I415
aI18229
aI18230
aI16967
aI16967
F8.0
I-1
tp1495
tp1496
Rp1497
ag1
(g9
g3
((lp1498
I415
aI18228
aI18228
F3.0
I-1
tp1499
tp1500
Rp1501
ag1
(g9
g3
((lp1502
I415
aI18229
aI18229
F2.0
I-1
tp1503
tp1504
Rp1505
ag1
(g9
g3
((lp1506
I415
aI18229
aI18230
aI18230
F5.0
I-1
tp1507
tp1508
Rp1509
atp1510
tp1511
Rp1512
sI12705
g1
(g2
g3
(I12705
F32.0191426
F34.745574
(lp1513
g1
(g9
g3
((lp1514
I12705
aI12706
aI12706
F217.0
I-1
tp1515
tp1516
Rp1517
atp1518
tp1519
Rp1520
sI12706
g1
(g2
g3
(I12706
F32.0210929
F34.7454967
(lp1521
g1
(g9
g3
((lp1522
I12706
aI12705
aI12705
F217.0
I-1
tp1523
tp1524
Rp1525
atp1526
tp1527
Rp1528
sI51620
g1
(g2
g3
(I51620
F32.0268543
F34.7633709
(lp1529
g1
(g9
g3
((lp1530
I51620
aI51621
aI51712
aI51712
F42.0
I-1
tp1531
tp1532
Rp1533
ag1
(g9
g3
((lp1534
I51620
aI51621
aI51712
aI51713
aI51713
F73.0
I-1
tp1535
tp1536
Rp1537
ag1
(g9
g3
((lp1538
I51620
aI51621
aI51621
F37.0
I-1
tp1539
tp1540
Rp1541
atp1542
tp1543
Rp1544
sI51621
g1
(g2
g3
(I51621
F32.0265319
F34.7632724
(lp1545
g1
(g9
g3
((lp1546
I51621
aI51712
aI51712
F5.0
I-1
tp1547
tp1548
Rp1549
ag1
(g9
g3
((lp1550
I51621
aI51712
aI51713
aI51713
F36.0
I-1
tp1551
tp1552
Rp1553
ag1
(g9
g3
((lp1554
I51621
aI51620
aI51620
F37.0
I-1
tp1555
tp1556
Rp1557
atp1558
tp1559
Rp1560
sI47529
g1
(g2
g3
(I47529
F32.0150581
F34.7919387
(lp1561
tp1562
tp1563
Rp1564
sI29110
g1
(g2
g3
(I29110
F32.056716
F34.7892357
(lp1565
g1
(g9
g3
((lp1566
I29110
aI38448
aI38448
F40.0
I-1
tp1567
tp1568
Rp1569
atp1570
tp1571
Rp1572
sI16830
g1
(g2
g3
(I16830
F32.1182658
F34.8000398
(lp1573
g1
(g9
g3
((lp1574
I16830
aI16831
aI16832
aI16832
F11.0
I-1
tp1575
tp1576
Rp1577
ag1
(g9
g3
((lp1578
I16830
aI16831
aI16832
aI16833
aI16833
F16.0
I-1
tp1579
tp1580
Rp1581
ag1
(g9
g3
((lp1582
I16830
aI16831
aI16832
aI16833
aI16834
aI16834
F18.0
I-1
tp1583
tp1584
Rp1585
ag1
(g9
g3
((lp1586
I16830
aI16831
aI16832
aI16833
aI16834
aI16835
aI16835
F21.0
I-1
tp1587
tp1588
Rp1589
ag1
(g9
g3
((lp1590
I16830
aI16831
aI16832
aI16833
aI16834
aI16835
aI16836
aI16836
F24.0
I-1
tp1591
tp1592
Rp1593
ag1
(g9
g3
((lp1594
I16830
aI16831
aI16832
aI16833
aI16834
aI16835
aI16836
aI5155
aI5155
F29.0
I-1
tp1595
tp1596
Rp1597
ag1
(g9
g3
((lp1598
I16830
aI16831
aI16831
F5.0
I-1
tp1599
tp1600
Rp1601
atp1602
tp1603
Rp1604
sI16831
g1
(g2
g3
(I16831
F32.1182614
F34.8001012
(lp1605
g1
(g9
g3
((lp1606
I16831
aI16832
aI16832
F6.0
I-1
tp1607
tp1608
Rp1609
ag1
(g9
g3
((lp1610
I16831
aI16832
aI16833
aI16833
F11.0
I-1
tp1611
tp1612
Rp1613
ag1
(g9
g3
((lp1614
I16831
aI16832
aI16833
aI16834
aI16834
F13.0
I-1
tp1615
tp1616
Rp1617
ag1
(g9
g3
((lp1618
I16831
aI16832
aI16833
aI16834
aI16835
aI16835
F16.0
I-1
tp1619
tp1620
Rp1621
ag1
(g9
g3
((lp1622
I16831
aI16832
aI16833
aI16834
aI16835
aI16836
aI16836
F19.0
I-1
tp1623
tp1624
Rp1625
ag1
(g9
g3
((lp1626
I16831
aI16832
aI16833
aI16834
aI16835
aI16836
aI5155
aI5155
F24.0
I-1
tp1627
tp1628
Rp1629
ag1
(g9
g3
((lp1630
I16831
aI16830
aI16830
F5.0
I-1
tp1631
tp1632
Rp1633
atp1634
tp1635
Rp1636
sI16832
g1
(g2
g3
(I16832
F32.1182799
F34.8001715
(lp1637
g1
(g9
g3
((lp1638
I16832
aI16833
aI16833
F5.0
I-1
tp1639
tp1640
Rp1641
ag1
(g9
g3
((lp1642
I16832
aI16833
aI16834
aI16834
F7.0
I-1
tp1643
tp1644
Rp1645
ag1
(g9
g3
((lp1646
I16832
aI16833
aI16834
aI16835
aI16835
F10.0
I-1
tp1647
tp1648
Rp1649
ag1
(g9
g3
((lp1650
I16832
aI16833
aI16834
aI16835
aI16836
aI16836
F13.0
I-1
tp1651
tp1652
Rp1653
ag1
(g9
g3
((lp1654
I16832
aI16833
aI16834
aI16835
aI16836
aI5155
aI5155
F18.0
I-1
tp1655
tp1656
Rp1657
ag1
(g9
g3
((lp1658
I16832
aI16831
aI16830
aI16830
F11.0
I-1
tp1659
tp1660
Rp1661
ag1
(g9
g3
((lp1662
I16832
aI16831
aI16831
F6.0
I-1
tp1663
tp1664
Rp1665
atp1666
tp1667
Rp1668
sI16833
g1
(g2
g3
(I16833
F32.1183128
F34.8002191
(lp1669
g1
(g9
g3
((lp1670
I16833
aI16832
aI16832
F5.0
I-1
tp1671
tp1672
Rp1673
ag1
(g9
g3
((lp1674
I16833
aI16834
aI16834
F2.0
I-1
tp1675
tp1676
Rp1677
ag1
(g9
g3
((lp1678
I16833
aI16834
aI16835
aI16835
F5.0
I-1
tp1679
tp1680
Rp1681
ag1
(g9
g3
((lp1682
I16833
aI16834
aI16835
aI16836
aI16836
F8.0
I-1
tp1683
tp1684
Rp1685
ag1
(g9
g3
((lp1686
I16833
aI16834
aI16835
aI16836
aI5155
aI5155
F13.0
I-1
tp1687
tp1688
Rp1689
ag1
(g9
g3
((lp1690
I16833
aI16832
aI16831
aI16830
aI16830
F16.0
I-1
tp1691
tp1692
Rp1693
ag1
(g9
g3
((lp1694
I16833
aI16832
aI16831
aI16831
F11.0
I-1
tp1695
tp1696
Rp1697
atp1698
tp1699
Rp1700
sI16834
g1
(g2
g3
(I16834
F32.118334
F34.800234
(lp1701
g1
(g9
g3
((lp1702
I16834
aI16833
aI16832
aI16832
F7.0
I-1
tp1703
tp1704
Rp1705
ag1
(g9
g3
((lp1706
I16834
aI16833
aI16833
F2.0
I-1
tp1707
tp1708
Rp1709
ag1
(g9
g3
((lp1710
I16834
aI16835
aI16835
F3.0
I-1
tp1711
tp1712
Rp1713
ag1
(g9
g3
((lp1714
I16834
aI16835
aI16836
aI16836
F6.0
I-1
tp1715
tp1716
Rp1717
ag1
(g9
g3
((lp1718
I16834
aI16835
aI16836
aI5155
aI5155
F11.0
I-1
tp1719
tp1720
Rp1721
ag1
(g9
g3
((lp1722
I16834
aI16833
aI16832
aI16831
aI16830
aI16830
F18.0
I-1
tp1723
tp1724
Rp1725
ag1
(g9
g3
((lp1726
I16834
aI16833
aI16832
aI16831
aI16831
F13.0
I-1
tp1727
tp1728
Rp1729
atp1730
tp1731
Rp1732
sI16835
g1
(g2
g3
(I16835
F32.1183576
F34.8002507
(lp1733
g1
(g9
g3
((lp1734
I16835
aI16834
aI16833
aI16832
aI16832
F10.0
I-1
tp1735
tp1736
Rp1737
ag1
(g9
g3
((lp1738
I16835
aI16834
aI16833
aI16833
F5.0
I-1
tp1739
tp1740
Rp1741
ag1
(g9
g3
((lp1742
I16835
aI16834
aI16834
F3.0
I-1
tp1743
tp1744
Rp1745
ag1
(g9
g3
((lp1746
I16835
aI16836
aI5155
aI5155
F8.0
I-1
tp1747
tp1748
Rp1749
ag1
(g9
g3
((lp1750
I16835
aI16836
aI16836
F3.0
I-1
tp1751
tp1752
Rp1753
ag1
(g9
g3
((lp1754
I16835
aI16834
aI16833
aI16832
aI16831
aI16830
aI16830
F21.0
I-1
tp1755
tp1756
Rp1757
ag1
(g9
g3
((lp1758
I16835
aI16834
aI16833
aI16832
aI16831
aI16831
F16.0
I-1
tp1759
tp1760
Rp1761
atp1762
tp1763
Rp1764
sI16836
g1
(g2
g3
(I16836
F32.118385
F34.8002596
(lp1765
g1
(g9
g3
((lp1766
I16836
aI16835
aI16834
aI16833
aI16832
aI16832
F13.0
I-1
tp1767
tp1768
Rp1769
ag1
(g9
g3
((lp1770
I16836
aI16835
aI16834
aI16833
aI16833
F8.0
I-1
tp1771
tp1772
Rp1773
ag1
(g9
g3
((lp1774
I16836
aI16835
aI16834
aI16834
F6.0
I-1
tp1775
tp1776
Rp1777
ag1
(g9
g3
((lp1778
I16836
aI5155
aI5155
F5.0
I-1
tp1779
tp1780
Rp1781
ag1
(g9
g3
((lp1782
I16836
aI16835
aI16835
F3.0
I-1
tp1783
tp1784
Rp1785
ag1
(g9
g3
((lp1786
I16836
aI16835
aI16834
aI16833
aI16832
aI16831
aI16830
aI16830
F24.0
I-1
tp1787
tp1788
Rp1789
ag1
(g9
g3
((lp1790
I16836
aI16835
aI16834
aI16833
aI16832
aI16831
aI16831
F19.0
I-1
tp1791
tp1792
Rp1793
atp1794
tp1795
Rp1796
sI74184
g1
(g2
g3
(I74184
F32.0079654
F34.7621204
(lp1797
g1
(g9
g3
((lp1798
I74184
aI46961
aI46961
F64.0
I-1
tp1799
tp1800
Rp1801
ag1
(g9
g3
((lp1802
I74184
aI46961
aI46962
aI46962
F158.0
I-1
tp1803
tp1804
Rp1805
atp1806
tp1807
Rp1808
sI61903
g1
(g2
g3
(I61903
F31.9885544
F34.8995195
(lp1809
g1
(g9
g3
((lp1810
I61903
aI61904
aI61904
F7.0
I-1
tp1811
tp1812
Rp1813
ag1
(g9
g3
((lp1814
I61903
aI61904
aI61905
aI61905
F14.0
I-1
tp1815
tp1816
Rp1817
ag1
(g9
g3
((lp1818
I61903
aI61904
aI61905
aI61906
aI61906
F23.0
I-1
tp1819
tp1820
Rp1821
ag1
(g9
g3
((lp1822
I61903
aI61904
aI61905
aI61906
aI61907
aI61907
F32.0
I-1
tp1823
tp1824
Rp1825
ag1
(g9
g3
((lp1826
I61903
aI61904
aI61905
aI61906
aI61907
aI61908
aI61908
F41.0
I-1
tp1827
tp1828
Rp1829
ag1
(g9
g3
((lp1830
I61903
aI61904
aI61905
aI61906
aI61907
aI61908
aI61909
aI61909
F50.0
I-1
tp1831
tp1832
Rp1833
ag1
(g9
g3
((lp1834
I61903
aI61904
aI61905
aI61906
aI61907
aI61908
aI61909
aI61910
aI61910
F61.0
I-1
tp1835
tp1836
Rp1837
atp1838
tp1839
Rp1840
sI61904
g1
(g2
g3
(I61904
F31.9885008
F34.8994719
(lp1841
g1
(g9
g3
((lp1842
I61904
aI61903
aI61903
F7.0
I-1
tp1843
tp1844
Rp1845
ag1
(g9
g3
((lp1846
I61904
aI61905
aI61905
F7.0
I-1
tp1847
tp1848
Rp1849
ag1
(g9
g3
((lp1850
I61904
aI61905
aI61906
aI61906
F16.0
I-1
tp1851
tp1852
Rp1853
ag1
(g9
g3
((lp1854
I61904
aI61905
aI61906
aI61907
aI61907
F25.0
I-1
tp1855
tp1856
Rp1857
ag1
(g9
g3
((lp1858
I61904
aI61905
aI61906
aI61907
aI61908
aI61908
F34.0
I-1
tp1859
tp1860
Rp1861
ag1
(g9
g3
((lp1862
I61904
aI61905
aI61906
aI61907
aI61908
aI61909
aI61909
F43.0
I-1
tp1863
tp1864
Rp1865
ag1
(g9
g3
((lp1866
I61904
aI61905
aI61906
aI61907
aI61908
aI61909
aI61910
aI61910
F54.0
I-1
tp1867
tp1868
Rp1869
atp1870
tp1871
Rp1872
sI61905
g1
(g2
g3
(I61905
F31.9884345
F34.899446
(lp1873
g1
(g9
g3
((lp1874
I61905
aI61904
aI61903
aI61903
F14.0
I-1
tp1875
tp1876
Rp1877
ag1
(g9
g3
((lp1878
I61905
aI61904
aI61904
F7.0
I-1
tp1879
tp1880
Rp1881
ag1
(g9
g3
((lp1882
I61905
aI61906
aI61906
F9.0
I-1
tp1883
tp1884
Rp1885
ag1
(g9
g3
((lp1886
I61905
aI61906
aI61907
aI61907
F18.0
I-1
tp1887
tp1888
Rp1889
ag1
(g9
g3
((lp1890
I61905
aI61906
aI61907
aI61908
aI61908
F27.0
I-1
tp1891
tp1892
Rp1893
ag1
(g9
g3
((lp1894
I61905
aI61906
aI61907
aI61908
aI61909
aI61909
F36.0
I-1
tp1895
tp1896
Rp1897
ag1
(g9
g3
((lp1898
I61905
aI61906
aI61907
aI61908
aI61909
aI61910
aI61910
F47.0
I-1
tp1899
tp1900
Rp1901
atp1902
tp1903
Rp1904
sI61906
g1
(g2
g3
(I61906
F31.9883535
F34.8994464
(lp1905
g1
(g9
g3
((lp1906
I61906
aI61905
aI61904
aI61903
aI61903
F23.0
I-1
tp1907
tp1908
Rp1909
ag1
(g9
g3
((lp1910
I61906
aI61905
aI61904
aI61904
F16.0
I-1
tp1911
tp1912
Rp1913
ag1
(g9
g3
((lp1914
I61906
aI61905
aI61905
F9.0
I-1
tp1915
tp1916
Rp1917
ag1
(g9
g3
((lp1918
I61906
aI61907
aI61907
F9.0
I-1
tp1919
tp1920
Rp1921
ag1
(g9
g3
((lp1922
I61906
aI61907
aI61908
aI61908
F18.0
I-1
tp1923
tp1924
Rp1925
ag1
(g9
g3
((lp1926
I61906
aI61907
aI61908
aI61909
aI61909
F27.0
I-1
tp1927
tp1928
Rp1929
ag1
(g9
g3
((lp1930
I61906
aI61907
aI61908
aI61909
aI61910
aI61910
F38.0
I-1
tp1931
tp1932
Rp1933
atp1934
tp1935
Rp1936
sI61907
g1
(g2
g3
(I61907
F31.9882768
F34.89948
(lp1937
g1
(g9
g3
((lp1938
I61907
aI61906
aI61905
aI61904
aI61903
aI61903
F32.0
I-1
tp1939
tp1940
Rp1941
ag1
(g9
g3
((lp1942
I61907
aI61906
aI61905
aI61904
aI61904
F25.0
I-1
tp1943
tp1944
Rp1945
ag1
(g9
g3
((lp1946
I61907
aI61906
aI61905
aI61905
F18.0
I-1
tp1947
tp1948
Rp1949
ag1
(g9
g3
((lp1950
I61907
aI61906
aI61906
F9.0
I-1
tp1951
tp1952
Rp1953
ag1
(g9
g3
((lp1954
I61907
aI61908
aI61908
F9.0
I-1
tp1955
tp1956
Rp1957
ag1
(g9
g3
((lp1958
I61907
aI61908
aI61909
aI61909
F18.0
I-1
tp1959
tp1960
Rp1961
ag1
(g9
g3
((lp1962
I61907
aI61908
aI61909
aI61910
aI61910
F29.0
I-1
tp1963
tp1964
Rp1965
atp1966
tp1967
Rp1968
sI61908
g1
(g2
g3
(I61908
F31.9882153
F34.899542
(lp1969
g1
(g9
g3
((lp1970
I61908
aI61907
aI61906
aI61905
aI61904
aI61903
aI61903
F41.0
I-1
tp1971
tp1972
Rp1973
ag1
(g9
g3
((lp1974
I61908
aI61907
aI61906
aI61905
aI61904
aI61904
F34.0
I-1
tp1975
tp1976
Rp1977
ag1
(g9
g3
((lp1978
I61908
aI61907
aI61906
aI61905
aI61905
F27.0
I-1
tp1979
tp1980
Rp1981
ag1
(g9
g3
((lp1982
I61908
aI61907
aI61906
aI61906
F18.0
I-1
tp1983
tp1984
Rp1985
ag1
(g9
g3
((lp1986
I61908
aI61907
aI61907
F9.0
I-1
tp1987
tp1988
Rp1989
ag1
(g9
g3
((lp1990
I61908
aI61909
aI61909
F9.0
I-1
tp1991
tp1992
Rp1993
ag1
(g9
g3
((lp1994
I61908
aI61909
aI61910
aI61910
F20.0
I-1
tp1995
tp1996
Rp1997
atp1998
tp1999
Rp2000
sI61909
g1
(g2
g3
(I61909
F31.9881754
F34.899625
(lp2001
g1
(g9
g3
((lp2002
I61909
aI61908
aI61907
aI61906
aI61905
aI61904
aI61903
aI61903
F50.0
I-1
tp2003
tp2004
Rp2005
ag1
(g9
g3
((lp2006
I61909
aI61908
aI61907
aI61906
aI61905
aI61904
aI61904
F43.0
I-1
tp2007
tp2008
Rp2009
ag1
(g9
g3
((lp2010
I61909
aI61908
aI61907
aI61906
aI61905
aI61905
F36.0
I-1
tp2011
tp2012
Rp2013
ag1
(g9
g3
((lp2014
I61909
aI61908
aI61907
aI61906
aI61906
F27.0
I-1
tp2015
tp2016
Rp2017
ag1
(g9
g3
((lp2018
I61909
aI61908
aI61907
aI61907
F18.0
I-1
tp2019
tp2020
Rp2021
ag1
(g9
g3
((lp2022
I61909
aI61908
aI61908
F9.0
I-1
tp2023
tp2024
Rp2025
ag1
(g9
g3
((lp2026
I61909
aI61910
aI61910
F11.0
I-1
tp2027
tp2028
Rp2029
atp2030
tp2031
Rp2032
sI61910
g1
(g2
g3
(I61910
F31.9881633
F34.899746
(lp2033
g1
(g9
g3
((lp2034
I61910
aI61909
aI61908
aI61907
aI61906
aI61905
aI61904
aI61903
aI61903
F61.0
I-1
tp2035
tp2036
Rp2037
ag1
(g9
g3
((lp2038
I61910
aI61909
aI61908
aI61907
aI61906
aI61905
aI61904
aI61904
F54.0
I-1
tp2039
tp2040
Rp2041
ag1
(g9
g3
((lp2042
I61910
aI61909
aI61908
aI61907
aI61906
aI61905
aI61905
F47.0
I-1
tp2043
tp2044
Rp2045
ag1
(g9
g3
((lp2046
I61910
aI61909
aI61908
aI61907
aI61906
aI61906
F38.0
I-1
tp2047
tp2048
Rp2049
ag1
(g9
g3
((lp2050
I61910
aI61909
aI61908
aI61907
aI61907
F29.0
I-1
tp2051
tp2052
Rp2053
ag1
(g9
g3
((lp2054
I61910
aI61909
aI61908
aI61908
F20.0
I-1
tp2055
tp2056
Rp2057
ag1
(g9
g3
((lp2058
I61910
aI61909
aI61909
F11.0
I-1
tp2059
tp2060
Rp2061
atp2062
tp2063
Rp2064
sI51678
g1
(g2
g3
(I51678
F32.0274644
F34.7643275
(lp2065
tp2066
tp2067
Rp2068
sI37968
g1
(g2
g3
(I37968
F31.8928402
F34.7984942
(lp2069
g1
(g9
g3
((lp2070
I37968
aI84178
aI84178
F9.0
I-1
tp2071
tp2072
Rp2073
ag1
(g9
g3
((lp2074
I37968
aI84178
aI37229
aI37229
F128.0
I-1
tp2075
tp2076
Rp2077
ag1
(g9
g3
((lp2078
I37968
aI84178
aI37229
aI37230
aI37230
F216.0
I-1
tp2079
tp2080
Rp2081
atp2082
tp2083
Rp2084
sI51684
g1
(g2
g3
(I51684
F32.0264533
F34.7640069
(lp2085
tp2086
tp2087
Rp2088
sI28071
g1
(g2
g3
(I28071
F32.0957097
F34.824594
(lp2089
tp2090
tp2091
Rp2092
sI27132
g1
(g2
g3
(I27132
F32.1205762
F34.8319003
(lp2093
g1
(g9
g3
((lp2094
I27132
aI27141
aI27141
F24.0
I-1
tp2095
tp2096
Rp2097
ag1
(g9
g3
((lp2098
I27132
aI27141
aI27142
aI27142
F97.0
I-1
tp2099
tp2100
Rp2101
ag1
(g9
g3
((lp2102
I27132
aI27133
aI27133
F15.0
I-1
tp2103
tp2104
Rp2105
ag1
(g9
g3
((lp2106
I27132
aI27133
aI27134
aI27134
F53.0
I-1
tp2107
tp2108
Rp2109
ag1
(g9
g3
((lp2110
I27132
aI27133
aI27134
aI27135
aI27135
F95.0
I-1
tp2111
tp2112
Rp2113
atp2114
tp2115
Rp2116
sI27133
g1
(g2
g3
(I27133
F32.120708
F34.8318399
(lp2117
g1
(g9
g3
((lp2118
I27133
aI27132
aI27141
aI27141
F39.0
I-1
tp2119
tp2120
Rp2121
ag1
(g9
g3
((lp2122
I27133
aI27132
aI27141
aI27142
aI27142
F112.0
I-1
tp2123
tp2124
Rp2125
ag1
(g9
g3
((lp2126
I27133
aI27132
aI27132
F15.0
I-1
tp2127
tp2128
Rp2129
ag1
(g9
g3
((lp2130
I27133
aI27134
aI27134
F38.0
I-1
tp2131
tp2132
Rp2133
ag1
(g9
g3
((lp2134
I27133
aI27134
aI27135
aI27135
F80.0
I-1
tp2135
tp2136
Rp2137
atp2138
tp2139
Rp2140
sI27134
g1
(g2
g3
(I27134
F32.1210356
F34.8317002
(lp2141
g1
(g9
g3
((lp2142
I27134
aI27133
aI27132
aI27141
aI27141
F77.0
I-1
tp2143
tp2144
Rp2145
ag1
(g9
g3
((lp2146
I27134
aI27133
aI27132
aI27141
aI27142
aI27142
F150.0
I-1
tp2147
tp2148
Rp2149
ag1
(g9
g3
((lp2150
I27134
aI27133
aI27132
aI27132
F53.0
I-1
tp2151
tp2152
Rp2153
ag1
(g9
g3
((lp2154
I27134
aI27133
aI27133
F38.0
I-1
tp2155
tp2156
Rp2157
ag1
(g9
g3
((lp2158
I27134
aI27135
aI27135
F42.0
I-1
tp2159
tp2160
Rp2161
atp2162
tp2163
Rp2164
sI27135
g1
(g2
g3
(I27135
F32.1213991
F34.8315715
(lp2165
g1
(g9
g3
((lp2166
I27135
aI27134
aI27133
aI27132
aI27141
aI27141
F119.0
I-1
tp2167
tp2168
Rp2169
ag1
(g9
g3
((lp2170
I27135
aI27134
aI27133
aI27132
aI27141
aI27142
aI27142
F192.0
I-1
tp2171
tp2172
Rp2173
ag1
(g9
g3
((lp2174
I27135
aI27134
aI27133
aI27132
aI27132
F95.0
I-1
tp2175
tp2176
Rp2177
ag1
(g9
g3
((lp2178
I27135
aI27134
aI27133
aI27133
F80.0
I-1
tp2179
tp2180
Rp2181
ag1
(g9
g3
((lp2182
I27135
aI27134
aI27134
F42.0
I-1
tp2183
tp2184
Rp2185
atp2186
tp2187
Rp2188
sI51712
g1
(g2
g3
(I51712
F32.0265413
F34.76321
(lp2189
g1
(g9
g3
((lp2190
I51712
aI51713
aI51713
F31.0
I-1
tp2191
tp2192
Rp2193
ag1
(g9
g3
((lp2194
I51712
aI51621
aI51620
aI51620
F42.0
I-1
tp2195
tp2196
Rp2197
ag1
(g9
g3
((lp2198
I51712
aI51621
aI51621
F5.0
I-1
tp2199
tp2200
Rp2201
atp2202
tp2203
Rp2204
sI51713
g1
(g2
g3
(I51713
F32.0262587
F34.763233
(lp2205
g1
(g9
g3
((lp2206
I51713
aI51712
aI51712
F31.0
I-1
tp2207
tp2208
Rp2209
ag1
(g9
g3
((lp2210
I51713
aI51712
aI51621
aI51620
aI51620
F73.0
I-1
tp2211
tp2212
Rp2213
ag1
(g9
g3
((lp2214
I51713
aI51712
aI51621
aI51621
F36.0
I-1
tp2215
tp2216
Rp2217
atp2218
tp2219
Rp2220
sI66052
g1
(g2
g3
(I66052
F31.9493311
F34.8037838
(lp2221
g1
(g9
g3
((lp2222
I66052
aI66053
aI66053
F4.0
I-1
tp2223
tp2224
Rp2225
ag1
(g9
g3
((lp2226
I66052
aI66053
aI66054
aI66054
F7.0
I-1
tp2227
tp2228
Rp2229
atp2230
tp2231
Rp2232
sI27141
g1
(g2
g3
(I27141
F32.1203887
F34.8317689
(lp2233
g1
(g9
g3
((lp2234
I27141
aI27142
aI27142
F73.0
I-1
tp2235
tp2236
Rp2237
ag1
(g9
g3
((lp2238
I27141
aI27132
aI27132
F24.0
I-1
tp2239
tp2240
Rp2241
ag1
(g9
g3
((lp2242
I27141
aI27132
aI27133
aI27133
F39.0
I-1
tp2243
tp2244
Rp2245
ag1
(g9
g3
((lp2246
I27141
aI27132
aI27133
aI27134
aI27134
F77.0
I-1
tp2247
tp2248
Rp2249
ag1
(g9
g3
((lp2250
I27141
aI27132
aI27133
aI27134
aI27135
aI27135
F119.0
I-1
tp2251
tp2252
Rp2253
atp2254
tp2255
Rp2256
sI27142
g1
(g2
g3
(I27142
F32.119749
F34.8315543
(lp2257
g1
(g9
g3
((lp2258
I27142
aI27141
aI27141
F73.0
I-1
tp2259
tp2260
Rp2261
ag1
(g9
g3
((lp2262
I27142
aI27141
aI27132
aI27132
F97.0
I-1
tp2263
tp2264
Rp2265
ag1
(g9
g3
((lp2266
I27142
aI27141
aI27132
aI27133
aI27133
F112.0
I-1
tp2267
tp2268
Rp2269
ag1
(g9
g3
((lp2270
I27142
aI27141
aI27132
aI27133
aI27134
aI27134
F150.0
I-1
tp2271
tp2272
Rp2273
ag1
(g9
g3
((lp2274
I27142
aI27141
aI27132
aI27133
aI27134
aI27135
aI27135
F192.0
I-1
tp2275
tp2276
Rp2277
atp2278
tp2279
Rp2280
sI54017
g1
(g2
g3
(I54017
F32.0817563
F34.8029489
(lp2281
g1
(g9
g3
((lp2282
I54017
aI16504
aI16504
F55.0
I-1
tp2283
tp2284
Rp2285
ag1
(g9
g3
((lp2286
I54017
aI54018
aI54018
F31.0
I-1
tp2287
tp2288
Rp2289
atp2290
tp2291
Rp2292
sI21250
g1
(g2
g3
(I21250
F32.1091912
F34.8302723
(lp2293
g1
(g9
g3
((lp2294
I21250
aI26452
aI26452
F5.0
I-1
tp2295
tp2296
Rp2297
ag1
(g9
g3
((lp2298
I21250
aI26452
aI26453
aI26453
F10.0
I-1
tp2299
tp2300
Rp2301
ag1
(g9
g3
((lp2302
I21250
aI26452
aI26453
aI26454
aI26454
F12.0
I-1
tp2303
tp2304
Rp2305
ag1
(g9
g3
((lp2306
I21250
aI26452
aI26453
aI26454
aI26455
aI26455
F17.0
I-1
tp2307
tp2308
Rp2309
ag1
(g9
g3
((lp2310
I21250
aI26452
aI26453
aI26454
aI26455
aI26456
aI26456
F22.0
I-1
tp2311
tp2312
Rp2313
atp2314
tp2315
Rp2316
sI66062
g1
(g2
g3
(I66062
F31.9491226
F34.8037824
(lp2317
g1
(g9
g3
((lp2318
I66062
aI66063
aI66064
aI66064
F7.0
I-1
tp2319
tp2320
Rp2321
ag1
(g9
g3
((lp2322
I66062
aI66063
aI66064
aI66065
aI66065
F11.0
I-1
tp2323
tp2324
Rp2325
ag1
(g9
g3
((lp2326
I66062
aI66063
aI66063
F4.0
I-1
tp2327
tp2328
Rp2329
atp2330
tp2331
Rp2332
sI66063
g1
(g2
g3
(I66063
F31.9491322
F34.8037411
(lp2333
g1
(g9
g3
((lp2334
I66063
aI66064
aI66064
F3.0
I-1
tp2335
tp2336
Rp2337
ag1
(g9
g3
((lp2338
I66063
aI66064
aI66065
aI66065
F7.0
I-1
tp2339
tp2340
Rp2341
ag1
(g9
g3
((lp2342
I66063
aI66062
aI66062
F4.0
I-1
tp2343
tp2344
Rp2345
atp2346
tp2347
Rp2348
sI66064
g1
(g2
g3
(I66064
F31.9491522
F34.8037072
(lp2349
g1
(g9
g3
((lp2350
I66064
aI66065
aI66065
F4.0
I-1
tp2351
tp2352
Rp2353
ag1
(g9
g3
((lp2354
I66064
aI66063
aI66062
aI66062
F7.0
I-1
tp2355
tp2356
Rp2357
ag1
(g9
g3
((lp2358
I66064
aI66063
aI66063
F3.0
I-1
tp2359
tp2360
Rp2361
atp2362
tp2363
Rp2364
sI66065
g1
(g2
g3
(I66065
F31.9491818
F34.8036823
(lp2365
g1
(g9
g3
((lp2366
I66065
aI66064
aI66064
F4.0
I-1
tp2367
tp2368
Rp2369
ag1
(g9
g3
((lp2370
I66065
aI66064
aI66063
aI66062
aI66062
F11.0
I-1
tp2371
tp2372
Rp2373
ag1
(g9
g3
((lp2374
I66065
aI66064
aI66063
aI66063
F7.0
I-1
tp2375
tp2376
Rp2377
atp2378
tp2379
Rp2380
sI76306
g1
(g2
g3
(I76306
F32.0376976
F34.7621135
(lp2381
tp2382
tp2383
Rp2384
sI5212
g1
(g2
g3
(I5212
F32.0703363
F34.805237
(lp2385
g1
(g9
g3
((lp2386
I5212
aI3877
aI2712
aI2712
F220.0
I-1
tp2387
tp2388
Rp2389
ag1
(g9
g3
((lp2390
I5212
aI3867
aI3867
F104.0
I-1
tp2391
tp2392
Rp2393
ag1
(g9
g3
((lp2394
I5212
aI3877
aI3877
F91.0
I-1
tp2395
tp2396
Rp2397
atp2398
tp2399
Rp2400
sI18183
g1
(g2
g3
(I18183
F32.0874146
F34.793786
(lp2401
tp2402
tp2403
Rp2404
sI32179
g1
(g2
g3
(I32179
F32.1219048
F34.808253
(lp2405
g1
(g9
g3
((lp2406
I32179
aI32167
aI32340
aI32172
aI32172
F178.0
I-1
tp2407
tp2408
Rp2409
ag1
(g9
g3
((lp2410
I32179
aI32167
aI32340
aI32340
F167.0
I-1
tp2411
tp2412
Rp2413
ag1
(g9
g3
((lp2414
I32179
aI32167
aI32167
F128.0
I-1
tp2415
tp2416
Rp2417
atp2418
tp2419
Rp2420
sI16967
g1
(g2
g3
(I16967
F32.0961083
F34.7905354
(lp2421
g1
(g9
g3
((lp2422
I16967
aI18230
aI18229
aI415
aI415
F8.0
I-1
tp2423
tp2424
Rp2425
ag1
(g9
g3
((lp2426
I16967
aI18230
aI18229
aI415
aI18228
aI18228
F11.0
I-1
tp2427
tp2428
Rp2429
ag1
(g9
g3
((lp2430
I16967
aI18230
aI18229
aI18229
F6.0
I-1
tp2431
tp2432
Rp2433
ag1
(g9
g3
((lp2434
I16967
aI18230
aI18230
F3.0
I-1
tp2435
tp2436
Rp2437
atp2438
tp2439
Rp2440
sI81677
g1
(g2
g3
(I81677
F32.0659243
F34.8057229
(lp2441
g1
(g9
g3
((lp2442
I81677
aI24844
aI24844
F29.0
I-1
tp2443
tp2444
Rp2445
atp2446
tp2447
Rp2448
sI19025
g1
(g2
g3
(I19025
F32.0574848
F34.7683724
(lp2449
g1
(g9
g3
((lp2450
I19025
aI4865
aI4865
F43.0
I-1
tp2451
tp2452
Rp2453
atp2454
tp2455
Rp2456
sI8992
g1
(g2
g3
(I8992
F31.9980442
F34.7354055
(lp2457
tp2458
tp2459
Rp2460
sI4721
g1
(g2
g3
(I4721
F32.0814822
F34.7835186
(lp2461
g1
(g9
g3
((lp2462
I4721
aI4722
aI4722
F89.0
I-1
tp2463
tp2464
Rp2465
ag1
(g9
g3
((lp2466
I4721
aI4722
aI4739
aI4739
F261.0
I-1
tp2467
tp2468
Rp2469
ag1
(g9
g3
((lp2470
I4721
aI4722
aI4739
aI4740
aI4740
F323.0
I-1
tp2471
tp2472
Rp2473
ag1
(g9
g3
((lp2474
I4721
aI4722
aI4739
aI4740
aI4741
aI4741
F329.0
I-1
tp2475
tp2476
Rp2477
atp2478
tp2479
Rp2480
sI4722
g1
(g2
g3
(I4722
F32.0809437
F34.7828104
(lp2481
g1
(g9
g3
((lp2482
I4722
aI4739
aI4740
aI4741
aI4721
aI4721
F346.0
I-1
tp2483
tp2484
Rp2485
ag1
(g9
g3
((lp2486
I4722
aI4739
aI4739
F172.0
I-1
tp2487
tp2488
Rp2489
ag1
(g9
g3
((lp2490
I4722
aI4739
aI4740
aI4740
F234.0
I-1
tp2491
tp2492
Rp2493
ag1
(g9
g3
((lp2494
I4722
aI4739
aI4740
aI4741
aI4741
F240.0
I-1
tp2495
tp2496
Rp2497
atp2498
tp2499
Rp2500
sI53875
g1
(g2
g3
(I53875
F32.0807237
F34.8024993
(lp2501
tp2502
tp2503
Rp2504
sI10870
g1
(g2
g3
(I10870
F32.1128069
F34.9638662
(lp2505
tp2506
tp2507
Rp2508
sI74365
g1
(g2
g3
(I74365
F32.0165522
F34.7754755
(lp2509
g1
(g9
g3
((lp2510
I74365
aI48167
aI48167
F4.0
I-1
tp2511
tp2512
Rp2513
atp2514
tp2515
Rp2516
sI29313
g1
(g2
g3
(I29313
F31.9036459
F34.8122584
(lp2517
g1
(g9
g3
((lp2518
I29313
aI29314
aI29314
F20.0
I-1
tp2519
tp2520
Rp2521
ag1
(g9
g3
((lp2522
I29313
aI29314
aI29315
aI29315
F34.0
I-1
tp2523
tp2524
Rp2525
ag1
(g9
g3
((lp2526
I29313
aI29314
aI29315
aI29316
aI29316
F45.0
I-1
tp2527
tp2528
Rp2529
atp2530
tp2531
Rp2532
sI17026
g1
(g2
g3
(I17026
F32.092335
F34.793994
(lp2533
g1
(g9
g3
((lp2534
I17026
aI17030
aI17029
aI17029
F95.0
I-1
tp2535
tp2536
Rp2537
ag1
(g9
g3
((lp2538
I17026
aI17030
aI17030
F28.0
I-1
tp2539
tp2540
Rp2541
ag1
(g9
g3
((lp2542
I17026
aI677
aI677
F126.0
I-1
tp2543
tp2544
Rp2545
atp2546
tp2547
Rp2548
sI4739
g1
(g2
g3
(I4739
F32.0807577
F34.7846226
(lp2549
g1
(g9
g3
((lp2550
I4739
aI4740
aI4741
aI4721
aI4721
F174.0
I-1
tp2551
tp2552
Rp2553
ag1
(g9
g3
((lp2554
I4739
aI4740
aI4741
aI4721
aI4722
aI4722
F263.0
I-1
tp2555
tp2556
Rp2557
ag1
(g9
g3
((lp2558
I4739
aI4740
aI4740
F62.0
I-1
tp2559
tp2560
Rp2561
ag1
(g9
g3
((lp2562
I4739
aI4740
aI4741
aI4741
F68.0
I-1
tp2563
tp2564
Rp2565
atp2566
tp2567
Rp2568
sI4740
g1
(g2
g3
(I4740
F32.0813155
F34.7846706
(lp2569
g1
(g9
g3
((lp2570
I4740
aI4741
aI4721
aI4721
F112.0
I-1
tp2571
tp2572
Rp2573
ag1
(g9
g3
((lp2574
I4740
aI4741
aI4721
aI4722
aI4722
F201.0
I-1
tp2575
tp2576
Rp2577
ag1
(g9
g3
((lp2578
I4740
aI4741
aI4721
aI4722
aI4739
aI4739
F373.0
I-1
tp2579
tp2580
Rp2581
ag1
(g9
g3
((lp2582
I4740
aI4741
aI4741
F6.0
I-1
tp2583
tp2584
Rp2585
atp2586
tp2587
Rp2588
sI4741
g1
(g2
g3
(I4741
F32.0813672
F34.7846375
(lp2589
g1
(g9
g3
((lp2590
I4741
aI4721
aI4721
F106.0
I-1
tp2591
tp2592
Rp2593
ag1
(g9
g3
((lp2594
I4741
aI4721
aI4722
aI4722
F195.0
I-1
tp2595
tp2596
Rp2597
ag1
(g9
g3
((lp2598
I4741
aI4721
aI4722
aI4739
aI4739
F367.0
I-1
tp2599
tp2600
Rp2601
ag1
(g9
g3
((lp2602
I4741
aI4721
aI4722
aI4739
aI4740
aI4740
F429.0
I-1
tp2603
tp2604
Rp2605
atp2606
tp2607
Rp2608
sI17030
g1
(g2
g3
(I17030
F32.0923929
F34.7942939
(lp2609
g1
(g9
g3
((lp2610
I17030
aI17026
aI17026
F28.0
I-1
tp2611
tp2612
Rp2613
ag1
(g9
g3
((lp2614
I17030
aI17029
aI17029
F67.0
I-1
tp2615
tp2616
Rp2617
ag1
(g9
g3
((lp2618
I17030
aI17026
aI677
aI677
F154.0
I-1
tp2619
tp2620
Rp2621
atp2622
tp2623
Rp2624
sI47756
g1
(g2
g3
(I47756
F32.0077487
F34.8077589
(lp2625
g1
(g9
g3
((lp2626
I47756
aI47757
aI47757
F4.0
I-1
tp2627
tp2628
Rp2629
ag1
(g9
g3
((lp2630
I47756
aI47757
aI47758
aI47758
F8.0
I-1
tp2631
tp2632
Rp2633
atp2634
tp2635
Rp2636
sI47757
g1
(g2
g3
(I47757
F32.0077646
F34.8077988
(lp2637
g1
(g9
g3
((lp2638
I47757
aI47756
aI47756
F4.0
I-1
tp2639
tp2640
Rp2641
ag1
(g9
g3
((lp2642
I47757
aI47758
aI47758
F4.0
I-1
tp2643
tp2644
Rp2645
atp2646
tp2647
Rp2648
sI47758
g1
(g2
g3
(I47758
F32.0077949
F34.8078363
(lp2649
g1
(g9
g3
((lp2650
I47758
aI47757
aI47756
aI47756
F8.0
I-1
tp2651
tp2652
Rp2653
ag1
(g9
g3
((lp2654
I47758
aI47757
aI47757
F4.0
I-1
tp2655
tp2656
Rp2657
atp2658
tp2659
Rp2660
sI2712
g1
(g2
g3
(I2712
F32.0695272
F34.8053446
(lp2661
g1
(g9
g3
((lp2662
I2712
aI5212
aI3867
aI3867
F194.0
I-1
tp2663
tp2664
Rp2665
ag1
(g9
g3
((lp2666
I2712
aI5212
aI5212
F90.0
I-1
tp2667
tp2668
Rp2669
ag1
(g9
g3
((lp2670
I2712
aI5212
aI3877
aI3877
F181.0
I-1
tp2671
tp2672
Rp2673
atp2674
tp2675
Rp2676
sI47770
g1
(g2
g3
(I47770
F32.0082169
F34.805123
(lp2677
g1
(g9
g3
((lp2678
I47770
aI47771
aI47771
F3.0
I-1
tp2679
tp2680
Rp2681
atp2682
tp2683
Rp2684
sI47771
g1
(g2
g3
(I47771
F32.0081935
F34.8051398
(lp2685
g1
(g9
g3
((lp2686
I47771
aI47770
aI47770
F3.0
I-1
tp2687
tp2688
Rp2689
atp2690
tp2691
Rp2692
sI677
g1
(g2
g3
(I677
F32.0922339
F34.7926599
(lp2693
g1
(g9
g3
((lp2694
I677
aI17026
aI17026
F126.0
I-1
tp2695
tp2696
Rp2697
ag1
(g9
g3
((lp2698
I677
aI17026
aI17030
aI17030
F154.0
I-1
tp2699
tp2700
Rp2701
ag1
(g9
g3
((lp2702
I677
aI17026
aI17030
aI17029
aI17029
F221.0
I-1
tp2703
tp2704
Rp2705
atp2706
tp2707
Rp2708
sI51880
g1
(g2
g3
(I51880
F32.0328037
F34.7658124
(lp2709
tp2710
tp2711
Rp2712
sI21162
g1
(g2
g3
(I21162
F32.1134702
F34.8367381
(lp2713
g1
(g9
g3
((lp2714
I21162
aI21244
aI21244
F62.0
I-1
tp2715
tp2716
Rp2717
ag1
(g9
g3
((lp2718
I21162
aI21245
aI21245
F10.0
I-1
tp2719
tp2720
Rp2721
ag1
(g9
g3
((lp2722
I21162
aI21245
aI21246
aI21246
F37.0
I-1
tp2723
tp2724
Rp2725
atp2726
tp2727
Rp2728
sI21165
g1
(g2
g3
(I21165
F32.1124701
F34.8357735
(lp2729
tp2730
tp2731
Rp2732
sI15041
g1
(g2
g3
(I15041
F32.0655271
F34.7646495
(lp2733
g1
(g9
g3
((lp2734
I15041
aI21887
aI21887
F7.0
I-1
tp2735
tp2736
Rp2737
ag1
(g9
g3
((lp2738
I15041
aI21873
aI21873
F6.0
I-1
tp2739
tp2740
Rp2741
atp2742
tp2743
Rp2744
sI35537
g1
(g2
g3
(I35537
F32.0683283
F34.7665123
(lp2745
g1
(g9
g3
((lp2746
I35537
aI28562
aI28562
F30.0
I-1
tp2747
tp2748
Rp2749
ag1
(g9
g3
((lp2750
I35537
aI28562
aI33594
aI33594
F66.0
I-1
tp2751
tp2752
Rp2753
atp2754
tp2755
Rp2756
sI92882
g1
(g2
g3
(I92882
F31.900924
F34.8197193
(lp2757
g1
(g9
g3
((lp2758
I92882
aI90400
aI90400
F4.0
I-1
tp2759
tp2760
Rp2761
atp2762
tp2763
Rp2764
sI13032
g1
(g2
g3
(I13032
F31.9783931
F34.7907591
(lp2765
tp2766
tp2767
Rp2768
sI13034
g1
(g2
g3
(I13034
F31.9795138
F34.7913825
(lp2769
tp2770
tp2771
Rp2772
sI756
g1
(g2
g3
(I756
F31.9823084
F34.8020768
(lp2773
tp2774
tp2775
Rp2776
sI21244
g1
(g2
g3
(I21244
F32.113721
F34.8361479
(lp2777
g1
(g9
g3
((lp2778
I21244
aI21162
aI21162
F62.0
I-1
tp2779
tp2780
Rp2781
ag1
(g9
g3
((lp2782
I21244
aI21162
aI21245
aI21245
F72.0
I-1
tp2783
tp2784
Rp2785
ag1
(g9
g3
((lp2786
I21244
aI21162
aI21245
aI21246
aI21246
F99.0
I-1
tp2787
tp2788
Rp2789
atp2790
tp2791
Rp2792
sI21245
g1
(g2
g3
(I21245
F32.1134241
F34.8368346
(lp2793
g1
(g9
g3
((lp2794
I21245
aI21162
aI21162
F10.0
I-1
tp2795
tp2796
Rp2797
ag1
(g9
g3
((lp2798
I21245
aI21162
aI21244
aI21244
F72.0
I-1
tp2799
tp2800
Rp2801
ag1
(g9
g3
((lp2802
I21245
aI21246
aI21246
F27.0
I-1
tp2803
tp2804
Rp2805
atp2806
tp2807
Rp2808
sI21246
g1
(g2
g3
(I21246
F32.1133072
F34.8370869
(lp2809
g1
(g9
g3
((lp2810
I21246
aI21245
aI21162
aI21162
F37.0
I-1
tp2811
tp2812
Rp2813
ag1
(g9
g3
((lp2814
I21246
aI21245
aI21162
aI21244
aI21244
F99.0
I-1
tp2815
tp2816
Rp2817
ag1
(g9
g3
((lp2818
I21246
aI21245
aI21245
F27.0
I-1
tp2819
tp2820
Rp2821
atp2822
tp2823
Rp2824
sI4865
g1
(g2
g3
(I4865
F32.0578673
F34.7683018
(lp2825
g1
(g9
g3
((lp2826
I4865
aI19025
aI19025
F43.0
I-1
tp2827
tp2828
Rp2829
atp2830
tp2831
Rp2832
sI54018
g1
(g2
g3
(I54018
F32.0820169
F34.8028054
(lp2833
g1
(g9
g3
((lp2834
I54018
aI54017
aI16504
aI16504
F86.0
I-1
tp2835
tp2836
Rp2837
ag1
(g9
g3
((lp2838
I54018
aI54017
aI54017
F31.0
I-1
tp2839
tp2840
Rp2841
atp2842
tp2843
Rp2844
sI13069
g1
(g2
g3
(I13069
F31.9802801
F34.7892734
(lp2845
g1
(g9
g3
((lp2846
I13069
aI13084
aI13084
F82.0
I-1
tp2847
tp2848
Rp2849
ag1
(g9
g3
((lp2850
I13069
aI13154
aI13154
F19.0
I-1
tp2851
tp2852
Rp2853
ag1
(g9
g3
((lp2854
I13069
aI13154
aI13146
aI13146
F38.0
I-1
tp2855
tp2856
Rp2857
atp2858
tp2859
Rp2860
sI76569
g1
(g2
g3
(I76569
F32.0163377
F34.7545231
(lp2861
g1
(g9
g3
((lp2862
I76569
aI52799
aI52799
F108.0
I-1
tp2863
tp2864
Rp2865
atp2866
tp2867
Rp2868
sI13084
g1
(g2
g3
(I13084
F31.9795417
F34.7891797
(lp2869
g1
(g9
g3
((lp2870
I13084
aI13069
aI13154
aI13146
aI13146
F120.0
I-1
tp2871
tp2872
Rp2873
ag1
(g9
g3
((lp2874
I13084
aI13069
aI13154
aI13154
F101.0
I-1
tp2875
tp2876
Rp2877
ag1
(g9
g3
((lp2878
I13084
aI13069
aI13069
F82.0
I-1
tp2879
tp2880
Rp2881
atp2882
tp2883
Rp2884
sI17184
g1
(g2
g3
(I17184
F32.0820129
F34.7932078
(lp2885
g1
(g9
g3
((lp2886
I17184
aI4476
aI5603
aI5603
F177.0
I-1
tp2887
tp2888
Rp2889
ag1
(g9
g3
((lp2890
I17184
aI4476
aI4476
F127.0
I-1
tp2891
tp2892
Rp2893
atp2894
tp2895
Rp2896
sI82738
g1
(g2
g3
(I82738
F32.0704473
F34.8398522
(lp2897
g1
(g9
g3
((lp2898
I82738
aI51267
aI51267
F116.0
I-1
tp2899
tp2900
Rp2901
ag1
(g9
g3
((lp2902
I82738
aI51267
aI51268
aI51268
F125.0
I-1
tp2903
tp2904
Rp2905
ag1
(g9
g3
((lp2906
I82738
aI79854
aI79853
aI79853
F108.0
I-1
tp2907
tp2908
Rp2909
ag1
(g9
g3
((lp2910
I82738
aI79854
aI79854
F56.0
I-1
tp2911
tp2912
Rp2913
atp2914
tp2915
Rp2916
sI33594
g1
(g2
g3
(I33594
F32.0680091
F34.7671166
(lp2917
g1
(g9
g3
((lp2918
I33594
aI28562
aI35537
aI35537
F66.0
I-1
tp2919
tp2920
Rp2921
ag1
(g9
g3
((lp2922
I33594
aI28562
aI28562
F36.0
I-1
tp2923
tp2924
Rp2925
atp2926
tp2927
Rp2928
sI11069
g1
(g2
g3
(I11069
F31.9552623
F34.9046184
(lp2929
tp2930
tp2931
Rp2932
sI14133
g1
(g2
g3
(I14133
F31.959483
F34.8043091
(lp2933
tp2934
tp2935
Rp2936
sI17218
g1
(g2
g3
(I17218
F32.1712165
F34.8438042
(lp2937
tp2938
tp2939
Rp2940
sI72524
g1
(g2
g3
(I72524
F32.0832461
F34.7813113
(lp2941
g1
(g9
g3
((lp2942
I72524
aI16683
aI16683
F73.0
I-1
tp2943
tp2944
Rp2945
atp2946
tp2947
Rp2948
sI56152
g1
(g2
g3
(I56152
F31.977158
F34.7687971
(lp2949
g1
(g9
g3
((lp2950
I56152
aI29894
aI29893
aI29893
F312.0
I-1
tp2951
tp2952
Rp2953
ag1
(g9
g3
((lp2954
I56152
aI29894
aI29894
F77.0
I-1
tp2955
tp2956
Rp2957
atp2958
tp2959
Rp2960
sI13146
g1
(g2
g3
(I13146
F31.9806247
F34.7892809
(lp2961
g1
(g9
g3
((lp2962
I13146
aI13154
aI13069
aI13084
aI13084
F120.0
I-1
tp2963
tp2964
Rp2965
ag1
(g9
g3
((lp2966
I13146
aI13154
aI13154
F19.0
I-1
tp2967
tp2968
Rp2969
ag1
(g9
g3
((lp2970
I13146
aI13154
aI13069
aI13069
F38.0
I-1
tp2971
tp2972
Rp2973
atp2974
tp2975
Rp2976
sI13154
g1
(g2
g3
(I13154
F31.9804529
F34.7892827
(lp2977
g1
(g9
g3
((lp2978
I13154
aI13069
aI13084
aI13084
F101.0
I-1
tp2979
tp2980
Rp2981
ag1
(g9
g3
((lp2982
I13154
aI13146
aI13146
F19.0
I-1
tp2983
tp2984
Rp2985
ag1
(g9
g3
((lp2986
I13154
aI13069
aI13069
F19.0
I-1
tp2987
tp2988
Rp2989
atp2990
tp2991
Rp2992
sI23405
g1
(g2
g3
(I23405
F32.2107358
F34.8835511
(lp2993
g1
(g9
g3
((lp2994
I23405
aI58671
aI23540
aI23540
F53.0
I-1
tp2995
tp2996
Rp2997
ag1
(g9
g3
((lp2998
I23405
aI23406
aI23406
F18.0
I-1
tp2999
tp3000
Rp3001
ag1
(g9
g3
((lp3002
I23405
aI58671
aI58671
F39.0
I-1
tp3003
tp3004
Rp3005
atp3006
tp3007
Rp3008
sI23406
g1
(g2
g3
(I23406
F32.2106632
F34.8833741
(lp3009
g1
(g9
g3
((lp3010
I23406
aI23405
aI58671
aI23540
aI23540
F71.0
I-1
tp3011
tp3012
Rp3013
ag1
(g9
g3
((lp3014
I23406
aI23405
aI23405
F18.0
I-1
tp3015
tp3016
Rp3017
ag1
(g9
g3
((lp3018
I23406
aI23405
aI58671
aI58671
F57.0
I-1
tp3019
tp3020
Rp3021
atp3022
tp3023
Rp3024
sI37761
g1
(g2
g3
(I37761
F32.1515319
F34.8376375
(lp3025
tp3026
tp3027
Rp3028
sI46676
g1
(g2
g3
(I46676
F32.0249071
F34.7790619
(lp3029
g1
(g9
g3
((lp3030
I46676
aI46675
aI46674
aI46673
aI46672
aI46671
aI46670
aI46670
F32.0
I-1
tp3031
tp3032
Rp3033
ag1
(g9
g3
((lp3034
I46676
aI46675
aI46674
aI46673
aI46672
aI46671
aI46671
F23.0
I-1
tp3035
tp3036
Rp3037
ag1
(g9
g3
((lp3038
I46676
aI46675
aI46674
aI46673
aI46672
aI46672
F19.0
I-1
tp3039
tp3040
Rp3041
ag1
(g9
g3
((lp3042
I46676
aI46675
aI46674
aI46673
aI46673
F14.0
I-1
tp3043
tp3044
Rp3045
ag1
(g9
g3
((lp3046
I46676
aI46675
aI46674
aI46674
F9.0
I-1
tp3047
tp3048
Rp3049
ag1
(g9
g3
((lp3050
I46676
aI46675
aI46675
F4.0
I-1
tp3051
tp3052
Rp3053
atp3054
tp3055
Rp3056
sI29603
g1
(g2
g3
(I29603
F31.9065317
F34.8206384
(lp3057
g1
(g9
g3
((lp3058
I29603
aI29604
aI29604
F3.0
I-1
tp3059
tp3060
Rp3061
ag1
(g9
g3
((lp3062
I29603
aI29604
aI29605
aI29605
F7.0
I-1
tp3063
tp3064
Rp3065
ag1
(g9
g3
((lp3066
I29603
aI29604
aI29605
aI29606
aI29606
F8.0
I-1
tp3067
tp3068
Rp3069
atp3070
tp3071
Rp3072
sI29604
g1
(g2
g3
(I29604
F31.9065509
F34.8206687
(lp3073
g1
(g9
g3
((lp3074
I29604
aI29603
aI29603
F3.0
I-1
tp3075
tp3076
Rp3077
ag1
(g9
g3
((lp3078
I29604
aI29605
aI29605
F4.0
I-1
tp3079
tp3080
Rp3081
ag1
(g9
g3
((lp3082
I29604
aI29605
aI29606
aI29606
F5.0
I-1
tp3083
tp3084
Rp3085
atp3086
tp3087
Rp3088
sI29605
g1
(g2
g3
(I29605
F31.906586
F34.8206951
(lp3089
g1
(g9
g3
((lp3090
I29605
aI29604
aI29603
aI29603
F7.0
I-1
tp3091
tp3092
Rp3093
ag1
(g9
g3
((lp3094
I29605
aI29604
aI29604
F4.0
I-1
tp3095
tp3096
Rp3097
ag1
(g9
g3
((lp3098
I29605
aI29606
aI29606
F1.0
I-1
tp3099
tp3100
Rp3101
atp3102
tp3103
Rp3104
sI29606
g1
(g2
g3
(I29606
F31.9065998
F34.8206999
(lp3105
g1
(g9
g3
((lp3106
I29606
aI29605
aI29604
aI29603
aI29603
F8.0
I-1
tp3107
tp3108
Rp3109
ag1
(g9
g3
((lp3110
I29606
aI29605
aI29604
aI29604
F5.0
I-1
tp3111
tp3112
Rp3113
ag1
(g9
g3
((lp3114
I29606
aI29605
aI29605
F1.0
I-1
tp3115
tp3116
Rp3117
atp3118
tp3119
Rp3120
sI29614
g1
(g2
g3
(I29614
F31.9066914
F34.8204931
(lp3121
tp3122
tp3123
Rp3124
sI13244
g1
(g2
g3
(I13244
F31.9888038
F34.7861123
(lp3125
g1
(g9
g3
((lp3126
I13244
aI13245
aI13642
aI13642
F35.0
I-1
tp3127
tp3128
Rp3129
ag1
(g9
g3
((lp3130
I13244
aI13245
aI13245
F25.0
I-1
tp3131
tp3132
Rp3133
atp3134
tp3135
Rp3136
sI13245
g1
(g2
g3
(I13245
F31.9890285
F34.7861337
(lp3137
g1
(g9
g3
((lp3138
I13245
aI13642
aI13642
F10.0
I-1
tp3139
tp3140
Rp3141
ag1
(g9
g3
((lp3142
I13245
aI13244
aI13244
F25.0
I-1
tp3143
tp3144
Rp3145
atp3146
tp3147
Rp3148
sI43980
g1
(g2
g3
(I43980
F32.0300316
F34.8809129
(lp3149
g1
(g9
g3
((lp3150
I43980
aI43981
aI43981
F3.0
I-1
tp3151
tp3152
Rp3153
ag1
(g9
g3
((lp3154
I43980
aI43981
aI43982
aI43982
F5.0
I-1
tp3155
tp3156
Rp3157
ag1
(g9
g3
((lp3158
I43980
aI43981
aI43982
aI43983
aI43983
F8.0
I-1
tp3159
tp3160
Rp3161
atp3162
tp3163
Rp3164
sI43981
g1
(g2
g3
(I43981
F32.0300465
F34.8809438
(lp3165
g1
(g9
g3
((lp3166
I43981
aI43980
aI43980
F3.0
I-1
tp3167
tp3168
Rp3169
ag1
(g9
g3
((lp3170
I43981
aI43982
aI43982
F2.0
I-1
tp3171
tp3172
Rp3173
ag1
(g9
g3
((lp3174
I43981
aI43982
aI43983
aI43983
F5.0
I-1
tp3175
tp3176
Rp3177
atp3178
tp3179
Rp3180
sI43982
g1
(g2
g3
(I43982
F32.0300624
F34.8809668
(lp3181
g1
(g9
g3
((lp3182
I43982
aI43981
aI43980
aI43980
F5.0
I-1
tp3183
tp3184
Rp3185
ag1
(g9
g3
((lp3186
I43982
aI43981
aI43981
F2.0
I-1
tp3187
tp3188
Rp3189
ag1
(g9
g3
((lp3190
I43982
aI43983
aI43983
F3.0
I-1
tp3191
tp3192
Rp3193
atp3194
tp3195
Rp3196
sI43983
g1
(g2
g3
(I43983
F32.0300832
F34.8809887
(lp3197
g1
(g9
g3
((lp3198
I43983
aI43982
aI43981
aI43980
aI43980
F8.0
I-1
tp3199
tp3200
Rp3201
ag1
(g9
g3
((lp3202
I43983
aI43982
aI43981
aI43981
F5.0
I-1
tp3203
tp3204
Rp3205
ag1
(g9
g3
((lp3206
I43983
aI43982
aI43982
F3.0
I-1
tp3207
tp3208
Rp3209
atp3210
tp3211
Rp3212
sI9178
g1
(g2
g3
(I9178
F31.9920616
F34.7762141
(lp3213
tp3214
tp3215
Rp3216
sI62438
g1
(g2
g3
(I62438
F32.0142543
F34.8293192
(lp3217
tp3218
tp3219
Rp3220
sI62441
g1
(g2
g3
(I62441
F32.0185844
F34.8289544
(lp3221
g1
(g9
g3
((lp3222
I62441
aI62442
aI62442
F176.0
I-1
tp3223
tp3224
Rp3225
ag1
(g9
g3
((lp3226
I62441
aI62442
aI62443
aI62443
F274.0
I-1
tp3227
tp3228
Rp3229
ag1
(g9
g3
((lp3230
I62441
aI62442
aI62443
aI62449
aI62449
F633.0
I-1
tp3231
tp3232
Rp3233
ag1
(g9
g3
((lp3234
I62441
aI62451
aI62450
aI62450
F424.0
I-1
tp3235
tp3236
Rp3237
ag1
(g9
g3
((lp3238
I62441
aI62451
aI62451
F386.0
I-1
tp3239
tp3240
Rp3241
atp3242
tp3243
Rp3244
sI62442
g1
(g2
g3
(I62442
F32.0172745
F34.8278922
(lp3245
g1
(g9
g3
((lp3246
I62442
aI62441
aI62441
F176.0
I-1
tp3247
tp3248
Rp3249
ag1
(g9
g3
((lp3250
I62442
aI62443
aI62443
F98.0
I-1
tp3251
tp3252
Rp3253
ag1
(g9
g3
((lp3254
I62442
aI62443
aI62449
aI62449
F457.0
I-1
tp3255
tp3256
Rp3257
ag1
(g9
g3
((lp3258
I62442
aI62441
aI62451
aI62450
aI62450
F600.0
I-1
tp3259
tp3260
Rp3261
ag1
(g9
g3
((lp3262
I62442
aI62441
aI62451
aI62451
F562.0
I-1
tp3263
tp3264
Rp3265
atp3266
tp3267
Rp3268
sI62443
g1
(g2
g3
(I62443
F32.0165831
F34.8272378
(lp3269
g1
(g9
g3
((lp3270
I62443
aI62442
aI62441
aI62441
F274.0
I-1
tp3271
tp3272
Rp3273
ag1
(g9
g3
((lp3274
I62443
aI62442
aI62442
F98.0
I-1
tp3275
tp3276
Rp3277
ag1
(g9
g3
((lp3278
I62443
aI62449
aI62449
F359.0
I-1
tp3279
tp3280
Rp3281
ag1
(g9
g3
((lp3282
I62443
aI62449
aI62450
aI62450
F598.0
I-1
tp3283
tp3284
Rp3285
ag1
(g9
g3
((lp3286
I62443
aI62449
aI62450
aI62451
aI62451
F636.0
I-1
tp3287
tp3288
Rp3289
atp3290
tp3291
Rp3292
sI62449
g1
(g2
g3
(I62449
F32.0187118
F34.8243732
(lp3293
g1
(g9
g3
((lp3294
I62449
aI62443
aI62442
aI62441
aI62441
F633.0
I-1
tp3295
tp3296
Rp3297
ag1
(g9
g3
((lp3298
I62449
aI62443
aI62442
aI62442
F457.0
I-1
tp3299
tp3300
Rp3301
ag1
(g9
g3
((lp3302
I62449
aI62443
aI62443
F359.0
I-1
tp3303
tp3304
Rp3305
ag1
(g9
g3
((lp3306
I62449
aI62450
aI62450
F239.0
I-1
tp3307
tp3308
Rp3309
ag1
(g9
g3
((lp3310
I62449
aI62450
aI62451
aI62451
F277.0
I-1
tp3311
tp3312
Rp3313
atp3314
tp3315
Rp3316
sI62450
g1
(g2
g3
(I62450
F32.0205766
F34.8256499
(lp3317
g1
(g9
g3
((lp3318
I62450
aI62451
aI62441
aI62441
F424.0
I-1
tp3319
tp3320
Rp3321
ag1
(g9
g3
((lp3322
I62450
aI62451
aI62441
aI62442
aI62442
F600.0
I-1
tp3323
tp3324
Rp3325
ag1
(g9
g3
((lp3326
I62450
aI62449
aI62443
aI62443
F598.0
I-1
tp3327
tp3328
Rp3329
ag1
(g9
g3
((lp3330
I62450
aI62449
aI62449
F239.0
I-1
tp3331
tp3332
Rp3333
ag1
(g9
g3
((lp3334
I62450
aI62451
aI62451
F38.0
I-1
tp3335
tp3336
Rp3337
atp3338
tp3339
Rp3340
sI62451
g1
(g2
g3
(I62451
F32.0208677
F34.8258645
(lp3341
g1
(g9
g3
((lp3342
I62451
aI62441
aI62441
F386.0
I-1
tp3343
tp3344
Rp3345
ag1
(g9
g3
((lp3346
I62451
aI62441
aI62442
aI62442
F562.0
I-1
tp3347
tp3348
Rp3349
ag1
(g9
g3
((lp3350
I62451
aI62450
aI62449
aI62443
aI62443
F636.0
I-1
tp3351
tp3352
Rp3353
ag1
(g9
g3
((lp3354
I62451
aI62450
aI62449
aI62449
F277.0
I-1
tp3355
tp3356
Rp3357
ag1
(g9
g3
((lp3358
I62451
aI62450
aI62450
F38.0
I-1
tp3359
tp3360
Rp3361
atp3362
tp3363
Rp3364
sI23540
g1
(g2
g3
(I23540
F32.2108808
F34.884084
(lp3365
g1
(g9
g3
((lp3366
I23540
aI58671
aI23405
aI23405
F53.0
I-1
tp3367
tp3368
Rp3369
ag1
(g9
g3
((lp3370
I23540
aI58671
aI23405
aI23406
aI23406
F71.0
I-1
tp3371
tp3372
Rp3373
ag1
(g9
g3
((lp3374
I23540
aI58671
aI58671
F14.0
I-1
tp3375
tp3376
Rp3377
atp3378
tp3379
Rp3380
sI35829
g1
(g2
g3
(I35829
F32.04139
F34.7755858
(lp3381
tp3382
tp3383
Rp3384
sI3062
g1
(g2
g3
(I3062
F32.1103695
F34.8259196
(lp3385
tp3386
tp3387
Rp3388
sI17401
g1
(g2
g3
(I17401
F32.10901
F34.819405
(lp3389
g1
(g9
g3
((lp3390
I17401
aI17402
aI17402
F52.0
I-1
tp3391
tp3392
Rp3393
atp3394
tp3395
Rp3396
sI17402
g1
(g2
g3
(I17402
F32.1085595
F34.8195655
(lp3397
g1
(g9
g3
((lp3398
I17402
aI17401
aI17401
F52.0
I-1
tp3399
tp3400
Rp3401
atp3402
tp3403
Rp3404
sI35837
g1
(g2
g3
(I35837
F32.0415237
F34.7753787
(lp3405
tp3406
tp3407
Rp3408
sI7169
g1
(g2
g3
(I7169
F31.9908182
F34.904307
(lp3409
tp3410
tp3411
Rp3412
sI48131
g1
(g2
g3
(I48131
F32.0180833
F34.7757531
(lp3413
g1
(g9
g3
((lp3414
I48131
aI41067
aI41067
F8.0
I-1
tp3415
tp3416
Rp3417
atp3418
tp3419
Rp3420
sI35850
g1
(g2
g3
(I35850
F32.041924
F34.7748017
(lp3421
tp3422
tp3423
Rp3424
sI25620
g1
(g2
g3
(I25620
F31.8820788
F34.7393479
(lp3425
g1
(g9
g3
((lp3426
I25620
aI24253
aI24253
F22.0
I-1
tp3427
tp3428
Rp3429
atp3430
tp3431
Rp3432
sI51726
g1
(g2
g3
(I51726
F32.0296379
F34.7651934
(lp3433
tp3434
tp3435
Rp3436
sI9243
g1
(g2
g3
(I9243
F31.9777983
F34.790677
(lp3437
tp3438
tp3439
Rp3440
sI66053
g1
(g2
g3
(I66053
F31.9493277
F34.8038264
(lp3441
g1
(g9
g3
((lp3442
I66053
aI66052
aI66052
F4.0
I-1
tp3443
tp3444
Rp3445
ag1
(g9
g3
((lp3446
I66053
aI66054
aI66054
F3.0
I-1
tp3447
tp3448
Rp3449
atp3450
tp3451
Rp3452
sI5155
g1
(g2
g3
(I5155
F32.1184372
F34.8002595
(lp3453
g1
(g9
g3
((lp3454
I5155
aI16836
aI16835
aI16834
aI16833
aI16832
aI16832
F18.0
I-1
tp3455
tp3456
Rp3457
ag1
(g9
g3
((lp3458
I5155
aI16836
aI16835
aI16834
aI16833
aI16833
F13.0
I-1
tp3459
tp3460
Rp3461
ag1
(g9
g3
((lp3462
I5155
aI16836
aI16835
aI16834
aI16834
F11.0
I-1
tp3463
tp3464
Rp3465
ag1
(g9
g3
((lp3466
I5155
aI16836
aI16836
F5.0
I-1
tp3467
tp3468
Rp3469
ag1
(g9
g3
((lp3470
I5155
aI16836
aI16835
aI16835
F8.0
I-1
tp3471
tp3472
Rp3473
ag1
(g9
g3
((lp3474
I5155
aI16836
aI16835
aI16834
aI16833
aI16832
aI16831
aI16830
aI16830
F29.0
I-1
tp3475
tp3476
Rp3477
ag1
(g9
g3
((lp3478
I5155
aI16836
aI16835
aI16834
aI16833
aI16832
aI16831
aI16831
F24.0
I-1
tp3479
tp3480
Rp3481
atp3482
tp3483
Rp3484
sI66054
g1
(g2
g3
(I66054
F31.9493135
F34.8038628
(lp3485
g1
(g9
g3
((lp3486
I66054
aI66053
aI66052
aI66052
F7.0
I-1
tp3487
tp3488
Rp3489
ag1
(g9
g3
((lp3490
I66054
aI66053
aI66053
F3.0
I-1
tp3491
tp3492
Rp3493
atp3494
tp3495
Rp3496
sI48167
g1
(g2
g3
(I48167
F32.0165955
F34.7754796
(lp3497
g1
(g9
g3
((lp3498
I48167
aI74365
aI74365
F4.0
I-1
tp3499
tp3500
Rp3501
atp3502
tp3503
Rp3504
sI5169
g1
(g2
g3
(I5169
F32.0956858
F34.7737895
(lp3505
g1
(g9
g3
((lp3506
I5169
aI31055
aI14570
aI5442
aI5442
F84.0
I-1
tp3507
tp3508
Rp3509
ag1
(g9
g3
((lp3510
I5169
aI31055
aI14570
aI14570
F57.0
I-1
tp3511
tp3512
Rp3513
ag1
(g9
g3
((lp3514
I5169
aI31055
aI14570
aI5442
aI14571
aI14571
F122.0
I-1
tp3515
tp3516
Rp3517
ag1
(g9
g3
((lp3518
I5169
aI31055
aI14570
aI5442
aI14571
aI14572
aI14572
F138.0
I-1
tp3519
tp3520
Rp3521
ag1
(g9
g3
((lp3522
I5169
aI31055
aI31055
F26.0
I-1
tp3523
tp3524
Rp3525
ag1
(g9
g3
((lp3526
I5169
aI31055
aI14570
aI5442
aI14571
aI14572
aI5172
aI5172
F264.0
I-1
tp3527
tp3528
Rp3529
ag1
(g9
g3
((lp3530
I5169
aI31055
aI14570
aI5173
aI5173
F133.0
I-1
tp3531
tp3532
Rp3533
atp3534
tp3535
Rp3536
sI5172
g1
(g2
g3
(I5172
F32.0938098
F34.7737466
(lp3537
g1
(g9
g3
((lp3538
I5172
aI14572
aI14571
aI5442
aI5442
F180.0
I-1
tp3539
tp3540
Rp3541
ag1
(g9
g3
((lp3542
I5172
aI14572
aI14571
aI5442
aI14570
aI14570
F207.0
I-1
tp3543
tp3544
Rp3545
ag1
(g9
g3
((lp3546
I5172
aI14572
aI14571
aI14571
F142.0
I-1
tp3547
tp3548
Rp3549
ag1
(g9
g3
((lp3550
I5172
aI14572
aI14572
F126.0
I-1
tp3551
tp3552
Rp3553
ag1
(g9
g3
((lp3554
I5172
aI14572
aI14571
aI5442
aI14570
aI31055
aI31055
F238.0
I-1
tp3555
tp3556
Rp3557
ag1
(g9
g3
((lp3558
I5172
aI14572
aI14571
aI5442
aI14570
aI31055
aI5169
aI5169
F264.0
I-1
tp3559
tp3560
Rp3561
ag1
(g9
g3
((lp3562
I5172
aI14572
aI14571
aI5442
aI14570
aI5173
aI5173
F283.0
I-1
tp3563
tp3564
Rp3565
atp3566
tp3567
Rp3568
sI5173
g1
(g2
g3
(I5173
F32.0962744
F34.7745713
(lp3569
g1
(g9
g3
((lp3570
I5173
aI14570
aI5442
aI5442
F103.0
I-1
tp3571
tp3572
Rp3573
ag1
(g9
g3
((lp3574
I5173
aI14570
aI14570
F76.0
I-1
tp3575
tp3576
Rp3577
ag1
(g9
g3
((lp3578
I5173
aI14570
aI5442
aI14571
aI14571
F141.0
I-1
tp3579
tp3580
Rp3581
ag1
(g9
g3
((lp3582
I5173
aI14570
aI5442
aI14571
aI14572
aI14572
F157.0
I-1
tp3583
tp3584
Rp3585
ag1
(g9
g3
((lp3586
I5173
aI14570
aI31055
aI31055
F107.0
I-1
tp3587
tp3588
Rp3589
ag1
(g9
g3
((lp3590
I5173
aI14570
aI31055
aI5169
aI5169
F133.0
I-1
tp3591
tp3592
Rp3593
ag1
(g9
g3
((lp3594
I5173
aI14570
aI5442
aI14571
aI14572
aI5172
aI5172
F283.0
I-1
tp3595
tp3596
Rp3597
atp3598
tp3599
Rp3600
sI33872
g1
(g2
g3
(I33872
F32.0516519
F34.7708349
(lp3601
g1
(g9
g3
((lp3602
I33872
aI33873
aI33873
F60.0
I-1
tp3603
tp3604
Rp3605
ag1
(g9
g3
((lp3606
I33872
aI33873
aI33909
aI33909
F195.0
I-1
tp3607
tp3608
Rp3609
ag1
(g9
g3
((lp3610
I33872
aI33873
aI33909
aI94503
aI94503
F231.0
I-1
tp3611
tp3612
Rp3613
atp3614
tp3615
Rp3616
sI33873
g1
(g2
g3
(I33873
F32.0517642
F34.7702083
(lp3617
g1
(g9
g3
((lp3618
I33873
aI33872
aI33872
F60.0
I-1
tp3619
tp3620
Rp3621
ag1
(g9
g3
((lp3622
I33873
aI33909
aI33909
F135.0
I-1
tp3623
tp3624
Rp3625
ag1
(g9
g3
((lp3626
I33873
aI33909
aI94503
aI94503
F171.0
I-1
tp3627
tp3628
Rp3629
atp3630
tp3631
Rp3632
sI68692
g1
(g2
g3
(I68692
F32.0564012
F34.756998
(lp3633
g1
(g9
g3
((lp3634
I68692
aI19929
aI19929
F100.0
I-1
tp3635
tp3636
Rp3637
atp3638
tp3639
Rp3640
sI62549
g1
(g2
g3
(I62549
F31.951916
F34.774935
(lp3641
g1
(g9
g3
((lp3642
I62549
aI62550
aI62550
F1.0
I-1
tp3643
tp3644
Rp3645
atp3646
tp3647
Rp3648
sI62550
g1
(g2
g3
(I62550
F31.9519228
F34.7749378
(lp3649
g1
(g9
g3
((lp3650
I62550
aI62549
aI62549
F1.0
I-1
tp3651
tp3652
Rp3653
atp3654
tp3655
Rp3656
sI70748
g1
(g2
g3
(I70748
F32.0112005
F34.7927054
(lp3657
g1
(g9
g3
((lp3658
I70748
aI79566
aI79566
F4.0
I-1
tp3659
tp3660
Rp3661
atp3662
tp3663
Rp3664
sI29790
g1
(g2
g3
(I29790
F31.9698116
F34.7692495
(lp3665
tp3666
tp3667
Rp3668
sI11362
g1
(g2
g3
(I11362
F31.9736152
F34.7990003
(lp3669
g1
(g9
g3
((lp3670
I11362
aI11265
aI11265
F61.0
I-1
tp3671
tp3672
Rp3673
atp3674
tp3675
Rp3676
sI23663
g1
(g2
g3
(I23663
F32.0778312
F34.8469858
(lp3677
tp3678
tp3679
Rp3680
sI33909
g1
(g2
g3
(I33909
F32.052977
F34.77036
(lp3681
g1
(g9
g3
((lp3682
I33909
aI33873
aI33872
aI33872
F195.0
I-1
tp3683
tp3684
Rp3685
ag1
(g9
g3
((lp3686
I33909
aI33873
aI33873
F135.0
I-1
tp3687
tp3688
Rp3689
ag1
(g9
g3
((lp3690
I33909
aI94503
aI94503
F36.0
I-1
tp3691
tp3692
Rp3693
atp3694
tp3695
Rp3696
sI40062
g1
(g2
g3
(I40062
F32.0951461
F34.9724528
(lp3697
tp3698
tp3699
Rp3700
sI5254
g1
(g2
g3
(I5254
F32.1630102
F34.810239
(lp3701
tp3702
tp3703
Rp3704
sI11403
g1
(g2
g3
(I11403
F31.9762553
F34.7991487
(lp3705
tp3706
tp3707
Rp3708
sI29894
g1
(g2
g3
(I29894
F31.9772916
F34.7695981
(lp3709
g1
(g9
g3
((lp3710
I29894
aI56152
aI56152
F77.0
I-1
tp3711
tp3712
Rp3713
ag1
(g9
g3
((lp3714
I29894
aI29893
aI29893
F235.0
I-1
tp3715
tp3716
Rp3717
atp3718
tp3719
Rp3720
sI68787
g1
(g2
g3
(I68787
F32.085252
F34.8198168
(lp3721
g1
(g9
g3
((lp3722
I68787
aI82186
aI82186
F180.0
I-1
tp3723
tp3724
Rp3725
ag1
(g9
g3
((lp3726
I68787
aI82186
aI82187
aI82187
F251.0
I-1
tp3727
tp3728
Rp3729
ag1
(g9
g3
((lp3730
I68787
aI82186
aI82187
aI82188
aI82188
F316.0
I-1
tp3731
tp3732
Rp3733
ag1
(g9
g3
((lp3734
I68787
aI82186
aI82187
aI82188
aI82189
aI82189
F359.0
I-1
tp3735
tp3736
Rp3737
ag1
(g9
g3
((lp3738
I68787
aI82186
aI82187
aI82188
aI82189
aI2282
aI82190
aI82190
F458.0
I-1
tp3739
tp3740
Rp3741
ag1
(g9
g3
((lp3742
I68787
aI82186
aI82187
aI82188
aI82189
aI2282
aI82190
aI82191
aI82191
F513.0
I-1
tp3743
tp3744
Rp3745
ag1
(g9
g3
((lp3746
I68787
aI82186
aI82187
aI82188
aI82189
aI2282
aI82190
aI82191
aI82192
aI82192
F551.0
I-1
tp3747
tp3748
Rp3749
ag1
(g9
g3
((lp3750
I68787
aI68788
aI68788
F89.0
I-1
tp3751
tp3752
Rp3753
ag1
(g9
g3
((lp3754
I68787
aI82186
aI82187
aI82188
aI82189
aI2282
aI2282
F376.0
I-1
tp3755
tp3756
Rp3757
atp3758
tp3759
Rp3760
sI68788
g1
(g2
g3
(I68788
F32.0854532
F34.8188987
(lp3761
g1
(g9
g3
((lp3762
I68788
aI68787
aI82186
aI82186
F269.0
I-1
tp3763
tp3764
Rp3765
ag1
(g9
g3
((lp3766
I68788
aI68787
aI82186
aI82187
aI82187
F340.0
I-1
tp3767
tp3768
Rp3769
ag1
(g9
g3
((lp3770
I68788
aI68787
aI82186
aI82187
aI82188
aI82188
F405.0
I-1
tp3771
tp3772
Rp3773
ag1
(g9
g3
((lp3774
I68788
aI68787
aI82186
aI82187
aI82188
aI82189
aI82189
F448.0
I-1
tp3775
tp3776
Rp3777
ag1
(g9
g3
((lp3778
I68788
aI68787
aI82186
aI82187
aI82188
aI82189
aI2282
aI82190
aI82190
F547.0
I-1
tp3779
tp3780
Rp3781
ag1
(g9
g3
((lp3782
I68788
aI68787
aI82186
aI82187
aI82188
aI82189
aI2282
aI82190
aI82191
aI82191
F602.0
I-1
tp3783
tp3784
Rp3785
ag1
(g9
g3
((lp3786
I68788
aI68787
aI82186
aI82187
aI82188
aI82189
aI2282
aI82190
aI82191
aI82192
aI82192
F640.0
I-1
tp3787
tp3788
Rp3789
ag1
(g9
g3
((lp3790
I68788
aI68787
aI68787
F89.0
I-1
tp3791
tp3792
Rp3793
ag1
(g9
g3
((lp3794
I68788
aI68787
aI82186
aI82187
aI82188
aI82189
aI2282
aI2282
F465.0
I-1
tp3795
tp3796
Rp3797
atp3798
tp3799
Rp3800
sI21686
g1
(g2
g3
(I21686
F32.0715817
F34.7861439
(lp3801
tp3802
tp3803
Rp3804
sI29881
g1
(g2
g3
(I29881
F31.9710735
F34.7774932
(lp3805
tp3806
tp3807
Rp3808
sI29893
g1
(g2
g3
(I29893
F31.9752348
F34.7701989
(lp3809
g1
(g9
g3
((lp3810
I29893
aI29894
aI56152
aI56152
F312.0
I-1
tp3811
tp3812
Rp3813
ag1
(g9
g3
((lp3814
I29893
aI29894
aI29894
F235.0
I-1
tp3815
tp3816
Rp3817
atp3818
tp3819
Rp3820
sI19654
g1
(g2
g3
(I19654
F32.2463611
F34.888656
(lp3821
g1
(g9
g3
((lp3822
I19654
aI19655
aI19655
F31.0
I-1
tp3823
tp3824
Rp3825
ag1
(g9
g3
((lp3826
I19654
aI19655
aI19656
aI19656
F214.0
I-1
tp3827
tp3828
Rp3829
ag1
(g9
g3
((lp3830
I19654
aI19655
aI19656
aI19657
aI19657
F359.0
I-1
tp3831
tp3832
Rp3833
ag1
(g9
g3
((lp3834
I19654
aI19655
aI19656
aI19657
aI19658
aI19658
F418.0
I-1
tp3835
tp3836
Rp3837
ag1
(g9
g3
((lp3838
I19654
aI19655
aI19656
aI19657
aI19658
aI19659
aI19659
F472.0
I-1
tp3839
tp3840
Rp3841
ag1
(g9
g3
((lp3842
I19654
aI19655
aI19656
aI19657
aI19658
aI19659
aI19660
aI19660
F523.0
I-1
tp3843
tp3844
Rp3845
atp3846
tp3847
Rp3848
sI19655
g1
(g2
g3
(I19655
F32.246307
F34.888987
(lp3849
g1
(g9
g3
((lp3850
I19655
aI19654
aI19654
F31.0
I-1
tp3851
tp3852
Rp3853
ag1
(g9
g3
((lp3854
I19655
aI19656
aI19656
F183.0
I-1
tp3855
tp3856
Rp3857
ag1
(g9
g3
((lp3858
I19655
aI19656
aI19657
aI19657
F328.0
I-1
tp3859
tp3860
Rp3861
ag1
(g9
g3
((lp3862
I19655
aI19656
aI19657
aI19658
aI19658
F387.0
I-1
tp3863
tp3864
Rp3865
ag1
(g9
g3
((lp3866
I19655
aI19656
aI19657
aI19658
aI19659
aI19659
F441.0
I-1
tp3867
tp3868
Rp3869
ag1
(g9
g3
((lp3870
I19655
aI19656
aI19657
aI19658
aI19659
aI19660
aI19660
F492.0
I-1
tp3871
tp3872
Rp3873
atp3874
tp3875
Rp3876
sI19656
g1
(g2
g3
(I19656
F32.2460092
F34.8909098
(lp3877
g1
(g9
g3
((lp3878
I19656
aI19655
aI19654
aI19654
F214.0
I-1
tp3879
tp3880
Rp3881
ag1
(g9
g3
((lp3882
I19656
aI19655
aI19655
F183.0
I-1
tp3883
tp3884
Rp3885
ag1
(g9
g3
((lp3886
I19656
aI19657
aI19657
F145.0
I-1
tp3887
tp3888
Rp3889
ag1
(g9
g3
((lp3890
I19656
aI19657
aI19658
aI19658
F204.0
I-1
tp3891
tp3892
Rp3893
ag1
(g9
g3
((lp3894
I19656
aI19657
aI19658
aI19659
aI19659
F258.0
I-1
tp3895
tp3896
Rp3897
ag1
(g9
g3
((lp3898
I19656
aI19657
aI19658
aI19659
aI19660
aI19660
F309.0
I-1
tp3899
tp3900
Rp3901
atp3902
tp3903
Rp3904
sI19657
g1
(g2
g3
(I19657
F32.245774
F34.892428
(lp3905
g1
(g9
g3
((lp3906
I19657
aI19656
aI19655
aI19654
aI19654
F359.0
I-1
tp3907
tp3908
Rp3909
ag1
(g9
g3
((lp3910
I19657
aI19656
aI19655
aI19655
F328.0
I-1
tp3911
tp3912
Rp3913
ag1
(g9
g3
((lp3914
I19657
aI19656
aI19656
F145.0
I-1
tp3915
tp3916
Rp3917
ag1
(g9
g3
((lp3918
I19657
aI19658
aI19658
F59.0
I-1
tp3919
tp3920
Rp3921
ag1
(g9
g3
((lp3922
I19657
aI19658
aI19659
aI19659
F113.0
I-1
tp3923
tp3924
Rp3925
ag1
(g9
g3
((lp3926
I19657
aI19658
aI19659
aI19660
aI19660
F164.0
I-1
tp3927
tp3928
Rp3929
atp3930
tp3931
Rp3932
sI19658
g1
(g2
g3
(I19658
F32.245723
F34.893057
(lp3933
g1
(g9
g3
((lp3934
I19658
aI19657
aI19656
aI19655
aI19654
aI19654
F418.0
I-1
tp3935
tp3936
Rp3937
ag1
(g9
g3
((lp3938
I19658
aI19657
aI19656
aI19655
aI19655
F387.0
I-1
tp3939
tp3940
Rp3941
ag1
(g9
g3
((lp3942
I19658
aI19657
aI19656
aI19656
F204.0
I-1
tp3943
tp3944
Rp3945
ag1
(g9
g3
((lp3946
I19658
aI19657
aI19657
F59.0
I-1
tp3947
tp3948
Rp3949
ag1
(g9
g3
((lp3950
I19658
aI19659
aI19659
F54.0
I-1
tp3951
tp3952
Rp3953
ag1
(g9
g3
((lp3954
I19658
aI19659
aI19660
aI19660
F105.0
I-1
tp3955
tp3956
Rp3957
atp3958
tp3959
Rp3960
sI19659
g1
(g2
g3
(I19659
F32.245791
F34.893631
(lp3961
g1
(g9
g3
((lp3962
I19659
aI19658
aI19657
aI19656
aI19655
aI19654
aI19654
F472.0
I-1
tp3963
tp3964
Rp3965
ag1
(g9
g3
((lp3966
I19659
aI19658
aI19657
aI19656
aI19655
aI19655
F441.0
I-1
tp3967
tp3968
Rp3969
ag1
(g9
g3
((lp3970
I19659
aI19658
aI19657
aI19656
aI19656
F258.0
I-1
tp3971
tp3972
Rp3973
ag1
(g9
g3
((lp3974
I19659
aI19658
aI19657
aI19657
F113.0
I-1
tp3975
tp3976
Rp3977
ag1
(g9
g3
((lp3978
I19659
aI19658
aI19658
F54.0
I-1
tp3979
tp3980
Rp3981
ag1
(g9
g3
((lp3982
I19659
aI19660
aI19660
F51.0
I-1
tp3983
tp3984
Rp3985
atp3986
tp3987
Rp3988
sI19660
g1
(g2
g3
(I19660
F32.245954
F34.894138
(lp3989
g1
(g9
g3
((lp3990
I19660
aI19659
aI19658
aI19657
aI19656
aI19655
aI19654
aI19654
F523.0
I-1
tp3991
tp3992
Rp3993
ag1
(g9
g3
((lp3994
I19660
aI19659
aI19658
aI19657
aI19656
aI19655
aI19655
F492.0
I-1
tp3995
tp3996
Rp3997
ag1
(g9
g3
((lp3998
I19660
aI19659
aI19658
aI19657
aI19656
aI19656
F309.0
I-1
tp3999
tp4000
Rp4001
ag1
(g9
g3
((lp4002
I19660
aI19659
aI19658
aI19657
aI19657
F164.0
I-1
tp4003
tp4004
Rp4005
ag1
(g9
g3
((lp4006
I19660
aI19659
aI19658
aI19658
F105.0
I-1
tp4007
tp4008
Rp4009
ag1
(g9
g3
((lp4010
I19660
aI19659
aI19659
F51.0
I-1
tp4011
tp4012
Rp4013
atp4014
tp4015
Rp4016
sI95437
g1
(g2
g3
(I95437
F32.0249337
F34.9089669
(lp4017
g1
(g9
g3
((lp4018
I95437
aI44877
aI44877
F20.0
I-1
tp4019
tp4020
Rp4021
ag1
(g9
g3
((lp4022
I95437
aI95438
aI95438
F12.0
I-1
tp4023
tp4024
Rp4025
ag1
(g9
g3
((lp4026
I95437
aI95438
aI95439
aI95439
F31.0
I-1
tp4027
tp4028
Rp4029
ag1
(g9
g3
((lp4030
I95437
aI95438
aI95439
aI95440
aI95440
F41.0
I-1
tp4031
tp4032
Rp4033
ag1
(g9
g3
((lp4034
I95437
aI95438
aI95439
aI95440
aI95441
aI95441
F51.0
I-1
tp4035
tp4036
Rp4037
ag1
(g9
g3
((lp4038
I95437
aI95438
aI95439
aI95440
aI95441
aI95442
aI95442
F59.0
I-1
tp4039
tp4040
Rp4041
atp4042
tp4043
Rp4044
sI95438
g1
(g2
g3
(I95438
F32.0249498
F34.9091009
(lp4045
g1
(g9
g3
((lp4046
I95438
aI95437
aI44877
aI44877
F32.0
I-1
tp4047
tp4048
Rp4049
ag1
(g9
g3
((lp4050
I95438
aI95437
aI95437
F12.0
I-1
tp4051
tp4052
Rp4053
ag1
(g9
g3
((lp4054
I95438
aI95439
aI95440
aI95440
F29.0
I-1
tp4055
tp4056
Rp4057
ag1
(g9
g3
((lp4058
I95438
aI95439
aI95440
aI95441
aI95441
F39.0
I-1
tp4059
tp4060
Rp4061
ag1
(g9
g3
((lp4062
I95438
aI95439
aI95440
aI95441
aI95442
aI95442
F47.0
I-1
tp4063
tp4064
Rp4065
ag1
(g9
g3
((lp4066
I95438
aI95439
aI95439
F19.0
I-1
tp4067
tp4068
Rp4069
atp4070
tp4071
Rp4072
sI95439
g1
(g2
g3
(I95439
F32.024968
F34.9093101
(lp4073
g1
(g9
g3
((lp4074
I95439
aI95438
aI95437
aI44877
aI44877
F51.0
I-1
tp4075
tp4076
Rp4077
ag1
(g9
g3
((lp4078
I95439
aI95438
aI95437
aI95437
F31.0
I-1
tp4079
tp4080
Rp4081
ag1
(g9
g3
((lp4082
I95439
aI95438
aI95438
F19.0
I-1
tp4083
tp4084
Rp4085
ag1
(g9
g3
((lp4086
I95439
aI95440
aI95440
F10.0
I-1
tp4087
tp4088
Rp4089
ag1
(g9
g3
((lp4090
I95439
aI95440
aI95441
aI95441
F20.0
I-1
tp4091
tp4092
Rp4093
ag1
(g9
g3
((lp4094
I95439
aI95440
aI95441
aI95442
aI95442
F28.0
I-1
tp4095
tp4096
Rp4097
atp4098
tp4099
Rp4100
sI95440
g1
(g2
g3
(I95440
F32.0249771
F34.9094174
(lp4101
g1
(g9
g3
((lp4102
I95440
aI95439
aI95438
aI95437
aI44877
aI44877
F61.0
I-1
tp4103
tp4104
Rp4105
ag1
(g9
g3
((lp4106
I95440
aI95439
aI95438
aI95437
aI95437
F41.0
I-1
tp4107
tp4108
Rp4109
ag1
(g9
g3
((lp4110
I95440
aI95439
aI95438
aI95438
F29.0
I-1
tp4111
tp4112
Rp4113
ag1
(g9
g3
((lp4114
I95440
aI95439
aI95439
F10.0
I-1
tp4115
tp4116
Rp4117
ag1
(g9
g3
((lp4118
I95440
aI95441
aI95441
F10.0
I-1
tp4119
tp4120
Rp4121
ag1
(g9
g3
((lp4122
I95440
aI95441
aI95442
aI95442
F18.0
I-1
tp4123
tp4124
Rp4125
atp4126
tp4127
Rp4128
sI95441
g1
(g2
g3
(I95441
F32.0249771
F34.90953
(lp4129
g1
(g9
g3
((lp4130
I95441
aI95440
aI95439
aI95438
aI95437
aI44877
aI44877
F71.0
I-1
tp4131
tp4132
Rp4133
ag1
(g9
g3
((lp4134
I95441
aI95440
aI95439
aI95438
aI95437
aI95437
F51.0
I-1
tp4135
tp4136
Rp4137
ag1
(g9
g3
((lp4138
I95441
aI95440
aI95439
aI95438
aI95438
F39.0
I-1
tp4139
tp4140
Rp4141
ag1
(g9
g3
((lp4142
I95441
aI95440
aI95439
aI95439
F20.0
I-1
tp4143
tp4144
Rp4145
ag1
(g9
g3
((lp4146
I95441
aI95440
aI95440
F10.0
I-1
tp4147
tp4148
Rp4149
ag1
(g9
g3
((lp4150
I95441
aI95442
aI95442
F8.0
I-1
tp4151
tp4152
Rp4153
atp4154
tp4155
Rp4156
sI95442
g1
(g2
g3
(I95442
F32.0249725
F34.9096158
(lp4157
g1
(g9
g3
((lp4158
I95442
aI95441
aI95440
aI95439
aI95438
aI95437
aI44877
aI44877
F79.0
I-1
tp4159
tp4160
Rp4161
ag1
(g9
g3
((lp4162
I95442
aI95441
aI95440
aI95439
aI95438
aI95437
aI95437
F59.0
I-1
tp4163
tp4164
Rp4165
ag1
(g9
g3
((lp4166
I95442
aI95441
aI95440
aI95439
aI95438
aI95438
F47.0
I-1
tp4167
tp4168
Rp4169
ag1
(g9
g3
((lp4170
I95442
aI95441
aI95440
aI95439
aI95439
F28.0
I-1
tp4171
tp4172
Rp4173
ag1
(g9
g3
((lp4174
I95442
aI95441
aI95440
aI95440
F18.0
I-1
tp4175
tp4176
Rp4177
ag1
(g9
g3
((lp4178
I95442
aI95441
aI95441
F8.0
I-1
tp4179
tp4180
Rp4181
atp4182
tp4183
Rp4184
sI1237
g1
(g2
g3
(I1237
F32.0636199
F34.8579409
(lp4185
tp4186
tp4187
Rp4188
sI5327
g1
(g2
g3
(I5327
F32.1788819
F34.8057406
(lp4189
g1
(g9
g3
((lp4190
I5327
aI5504
aI5504
F5.0
I-1
tp4191
tp4192
Rp4193
ag1
(g9
g3
((lp4194
I5327
aI5504
aI5505
aI5505
F11.0
I-1
tp4195
tp4196
Rp4197
atp4198
tp4199
Rp4200
sI77026
g1
(g2
g3
(I77026
F32.107818
F34.8104465
(lp4201
g1
(g9
g3
((lp4202
I77026
aI77034
aI77035
aI77036
aI77037
aI77038
aI26015
aI77039
aI77040
aI77041
aI77028
aI77028
F22.0
I-1
tp4203
tp4204
Rp4205
ag1
(g9
g3
((lp4206
I77026
aI77034
aI77035
aI77036
aI77037
aI77038
aI26015
aI77039
aI77040
aI77041
aI77028
aI77029
aI77029
F24.0
I-1
tp4207
tp4208
Rp4209
ag1
(g9
g3
((lp4210
I77026
aI77034
aI77035
aI77036
aI77037
aI77038
aI26015
aI77039
aI77040
aI77041
aI77028
aI77029
aI77030
aI77030
F26.0
I-1
tp4211
tp4212
Rp4213
ag1
(g9
g3
((lp4214
I77026
aI77034
aI77034
F2.0
I-1
tp4215
tp4216
Rp4217
ag1
(g9
g3
((lp4218
I77026
aI77034
aI77035
aI77035
F6.0
I-1
tp4219
tp4220
Rp4221
ag1
(g9
g3
((lp4222
I77026
aI77034
aI77035
aI77036
aI77036
F8.0
I-1
tp4223
tp4224
Rp4225
ag1
(g9
g3
((lp4226
I77026
aI77034
aI77035
aI77036
aI77037
aI77037
F11.0
I-1
tp4227
tp4228
Rp4229
ag1
(g9
g3
((lp4230
I77026
aI77034
aI77035
aI77036
aI77037
aI77038
aI77038
F13.0
I-1
tp4231
tp4232
Rp4233
ag1
(g9
g3
((lp4234
I77026
aI77034
aI77035
aI77036
aI77037
aI77038
aI26015
aI77039
aI77039
F17.0
I-1
tp4235
tp4236
Rp4237
ag1
(g9
g3
((lp4238
I77026
aI77034
aI77035
aI77036
aI77037
aI77038
aI26015
aI77039
aI77040
aI77040
F19.0
I-1
tp4239
tp4240
Rp4241
ag1
(g9
g3
((lp4242
I77026
aI77034
aI77035
aI77036
aI77037
aI77038
aI26015
aI77039
aI77040
aI77041
aI77041
F21.0
I-1
tp4243
tp4244
Rp4245
ag1
(g9
g3
((lp4246
I77026
aI77034
aI77035
aI77036
aI77037
aI77038
aI26015
aI77039
aI77040
aI77041
aI77028
aI77029
aI77030
aI65759
aI65759
F28.0
I-1
tp4247
tp4248
Rp4249
ag1
(g9
g3
((lp4250
I77026
aI77034
aI77035
aI77036
aI77037
aI77038
aI26015
aI26015
F14.0
I-1
tp4251
tp4252
Rp4253
atp4254
tp4255
Rp4256
sI77028
g1
(g2
g3
(I77028
F32.1079026
F34.8103221
(lp4257
g1
(g9
g3
((lp4258
I77028
aI77041
aI77040
aI77039
aI26015
aI77038
aI77037
aI77036
aI77035
aI77034
aI77026
aI77026
F22.0
I-1
tp4259
tp4260
Rp4261
ag1
(g9
g3
((lp4262
I77028
aI77029
aI77029
F2.0
I-1
tp4263
tp4264
Rp4265
ag1
(g9
g3
((lp4266
I77028
aI77029
aI77030
aI77030
F4.0
I-1
tp4267
tp4268
Rp4269
ag1
(g9
g3
((lp4270
I77028
aI77041
aI77040
aI77039
aI26015
aI77038
aI77037
aI77036
aI77035
aI77034
aI77034
F20.0
I-1
tp4271
tp4272
Rp4273
ag1
(g9
g3
((lp4274
I77028
aI77041
aI77040
aI77039
aI26015
aI77038
aI77037
aI77036
aI77035
aI77035
F16.0
I-1
tp4275
tp4276
Rp4277
ag1
(g9
g3
((lp4278
I77028
aI77041
aI77040
aI77039
aI26015
aI77038
aI77037
aI77036
aI77036
F14.0
I-1
tp4279
tp4280
Rp4281
ag1
(g9
g3
((lp4282
I77028
aI77041
aI77040
aI77039
aI26015
aI77038
aI77037
aI77037
F11.0
I-1
tp4283
tp4284
Rp4285
ag1
(g9
g3
((lp4286
I77028
aI77041
aI77040
aI77039
aI26015
aI77038
aI77038
F9.0
I-1
tp4287
tp4288
Rp4289
ag1
(g9
g3
((lp4290
I77028
aI77041
aI77040
aI77039
aI77039
F5.0
I-1
tp4291
tp4292
Rp4293
ag1
(g9
g3
((lp4294
I77028
aI77041
aI77040
aI77040
F3.0
I-1
tp4295
tp4296
Rp4297
ag1
(g9
g3
((lp4298
I77028
aI77041
aI77041
F1.0
I-1
tp4299
tp4300
Rp4301
ag1
(g9
g3
((lp4302
I77028
aI77041
aI77040
aI77039
aI26015
aI26015
F8.0
I-1
tp4303
tp4304
Rp4305
ag1
(g9
g3
((lp4306
I77028
aI77029
aI77030
aI65759
aI65759
F6.0
I-1
tp4307
tp4308
Rp4309
atp4310
tp4311
Rp4312
sI77029
g1
(g2
g3
(I77029
F32.1079132
F34.8103479
(lp4313
g1
(g9
g3
((lp4314
I77029
aI77028
aI77041
aI77040
aI77039
aI26015
aI77038
aI77037
aI77036
aI77035
aI77034
aI77026
aI77026
F24.0
I-1
tp4315
tp4316
Rp4317
ag1
(g9
g3
((lp4318
I77029
aI77028
aI77028
F2.0
I-1
tp4319
tp4320
Rp4321
ag1
(g9
g3
((lp4322
I77029
aI77030
aI77030
F2.0
I-1
tp4323
tp4324
Rp4325
ag1
(g9
g3
((lp4326
I77029
aI77028
aI77041
aI77040
aI77039
aI26015
aI77038
aI77037
aI77036
aI77035
aI77034
aI77034
F22.0
I-1
tp4327
tp4328
Rp4329
ag1
(g9
g3
((lp4330
I77029
aI77028
aI77041
aI77040
aI77039
aI26015
aI77038
aI77037
aI77036
aI77035
aI77035
F18.0
I-1
tp4331
tp4332
Rp4333
ag1
(g9
g3
((lp4334
I77029
aI77028
aI77041
aI77040
aI77039
aI26015
aI77038
aI77037
aI77036
aI77036
F16.0
I-1
tp4335
tp4336
Rp4337
ag1
(g9
g3
((lp4338
I77029
aI77028
aI77041
aI77040
aI77039
aI26015
aI77038
aI77037
aI77037
F13.0
I-1
tp4339
tp4340
Rp4341
ag1
(g9
g3
((lp4342
I77029
aI77028
aI77041
aI77040
aI77039
aI26015
aI77038
aI77038
F11.0
I-1
tp4343
tp4344
Rp4345
ag1
(g9
g3
((lp4346
I77029
aI77028
aI77041
aI77040
aI77039
aI77039
F7.0
I-1
tp4347
tp4348
Rp4349
ag1
(g9
g3
((lp4350
I77029
aI77028
aI77041
aI77040
aI77040
F5.0
I-1
tp4351
tp4352
Rp4353
ag1
(g9
g3
((lp4354
I77029
aI77028
aI77041
aI77041
F3.0
I-1
tp4355
tp4356
Rp4357
ag1
(g9
g3
((lp4358
I77029
aI77028
aI77041
aI77040
aI77039
aI26015
aI26015
F10.0
I-1
tp4359
tp4360
Rp4361
ag1
(g9
g3
((lp4362
I77029
aI77030
aI65759
aI65759
F4.0
I-1
tp4363
tp4364
Rp4365
atp4366
tp4367
Rp4368
sI83174
g1
(g2
g3
(I83174
F32.0667252
F34.8212547
(lp4369
g1
(g9
g3
((lp4370
I83174
aI83175
aI83176
aI83176
F102.0
I-1
tp4371
tp4372
Rp4373
ag1
(g9
g3
((lp4374
I83174
aI83175
aI83175
F59.0
I-1
tp4375
tp4376
Rp4377
atp4378
tp4379
Rp4380
sI83175
g1
(g2
g3
(I83175
F32.0672406
F34.8214384
(lp4381
g1
(g9
g3
((lp4382
I83175
aI83176
aI83176
F43.0
I-1
tp4383
tp4384
Rp4385
ag1
(g9
g3
((lp4386
I83175
aI83174
aI83174
F59.0
I-1
tp4387
tp4388
Rp4389
atp4390
tp4391
Rp4392
sI83176
g1
(g2
g3
(I83176
F32.0676113
F34.8215737
(lp4393
g1
(g9
g3
((lp4394
I83176
aI83175
aI83174
aI83174
F102.0
I-1
tp4395
tp4396
Rp4397
ag1
(g9
g3
((lp4398
I83176
aI83175
aI83175
F43.0
I-1
tp4399
tp4400
Rp4401
atp4402
tp4403
Rp4404
sI77034
g1
(g2
g3
(I77034
F32.1077977
F34.8104306
(lp4405
g1
(g9
g3
((lp4406
I77034
aI77026
aI77026
F2.0
I-1
tp4407
tp4408
Rp4409
ag1
(g9
g3
((lp4410
I77034
aI77035
aI77036
aI77037
aI77038
aI26015
aI77039
aI77040
aI77041
aI77028
aI77028
F20.0
I-1
tp4411
tp4412
Rp4413
ag1
(g9
g3
((lp4414
I77034
aI77035
aI77036
aI77037
aI77038
aI26015
aI77039
aI77040
aI77041
aI77028
aI77029
aI77029
F22.0
I-1
tp4415
tp4416
Rp4417
ag1
(g9
g3
((lp4418
I77034
aI77035
aI77036
aI77037
aI77038
aI26015
aI77039
aI77040
aI77041
aI77028
aI77029
aI77030
aI77030
F24.0
I-1
tp4419
tp4420
Rp4421
ag1
(g9
g3
((lp4422
I77034
aI77035
aI77035
F4.0
I-1
tp4423
tp4424
Rp4425
ag1
(g9
g3
((lp4426
I77034
aI77035
aI77036
aI77036
F6.0
I-1
tp4427
tp4428
Rp4429
ag1
(g9
g3
((lp4430
I77034
aI77035
aI77036
aI77037
aI77037
F9.0
I-1
tp4431
tp4432
Rp4433
ag1
(g9
g3
((lp4434
I77034
aI77035
aI77036
aI77037
aI77038
aI77038
F11.0
I-1
tp4435
tp4436
Rp4437
ag1
(g9
g3
((lp4438
I77034
aI77035
aI77036
aI77037
aI77038
aI26015
aI77039
aI77039
F15.0
I-1
tp4439
tp4440
Rp4441
ag1
(g9
g3
((lp4442
I77034
aI77035
aI77036
aI77037
aI77038
aI26015
aI77039
aI77040
aI77040
F17.0
I-1
tp4443
tp4444
Rp4445
ag1
(g9
g3
((lp4446
I77034
aI77035
aI77036
aI77037
aI77038
aI26015
aI77039
aI77040
aI77041
aI77041
F19.0
I-1
tp4447
tp4448
Rp4449
ag1
(g9
g3
((lp4450
I77034
aI77035
aI77036
aI77037
aI77038
aI26015
aI77039
aI77040
aI77041
aI77028
aI77029
aI77030
aI65759
aI65759
F26.0
I-1
tp4451
tp4452
Rp4453
ag1
(g9
g3
((lp4454
I77034
aI77035
aI77036
aI77037
aI77038
aI26015
aI26015
F12.0
I-1
tp4455
tp4456
Rp4457
atp4458
tp4459
Rp4460
sI77035
g1
(g2
g3
(I77035
F32.1077788
F34.8103942
(lp4461
g1
(g9
g3
((lp4462
I77035
aI77034
aI77026
aI77026
F6.0
I-1
tp4463
tp4464
Rp4465
ag1
(g9
g3
((lp4466
I77035
aI77036
aI77037
aI77038
aI26015
aI77039
aI77040
aI77041
aI77028
aI77028
F16.0
I-1
tp4467
tp4468
Rp4469
ag1
(g9
g3
((lp4470
I77035
aI77036
aI77037
aI77038
aI26015
aI77039
aI77040
aI77041
aI77028
aI77029
aI77029
F18.0
I-1
tp4471
tp4472
Rp4473
ag1
(g9
g3
((lp4474
I77035
aI77036
aI77037
aI77038
aI26015
aI77039
aI77040
aI77041
aI77028
aI77029
aI77030
aI77030
F20.0
I-1
tp4475
tp4476
Rp4477
ag1
(g9
g3
((lp4478
I77035
aI77034
aI77034
F4.0
I-1
tp4479
tp4480
Rp4481
ag1
(g9
g3
((lp4482
I77035
aI77036
aI77036
F2.0
I-1
tp4483
tp4484
Rp4485
ag1
(g9
g3
((lp4486
I77035
aI77036
aI77037
aI77037
F5.0
I-1
tp4487
tp4488
Rp4489
ag1
(g9
g3
((lp4490
I77035
aI77036
aI77037
aI77038
aI77038
F7.0
I-1
tp4491
tp4492
Rp4493
ag1
(g9
g3
((lp4494
I77035
aI77036
aI77037
aI77038
aI26015
aI77039
aI77039
F11.0
I-1
tp4495
tp4496
Rp4497
ag1
(g9
g3
((lp4498
I77035
aI77036
aI77037
aI77038
aI26015
aI77039
aI77040
aI77040
F13.0
I-1
tp4499
tp4500
Rp4501
ag1
(g9
g3
((lp4502
I77035
aI77036
aI77037
aI77038
aI26015
aI77039
aI77040
aI77041
aI77041
F15.0
I-1
tp4503
tp4504
Rp4505
ag1
(g9
g3
((lp4506
I77035
aI77036
aI77037
aI77038
aI26015
aI77039
aI77040
aI77041
aI77028
aI77029
aI77030
aI65759
aI65759
F22.0
I-1
tp4507
tp4508
Rp4509
ag1
(g9
g3
((lp4510
I77035
aI77036
aI77037
aI77038
aI26015
aI26015
F8.0
I-1
tp4511
tp4512
Rp4513
atp4514
tp4515
Rp4516
sI77036
g1
(g2
g3
(I77036
F32.107776
F34.8103657
(lp4517
g1
(g9
g3
((lp4518
I77036
aI77035
aI77034
aI77026
aI77026
F8.0
I-1
tp4519
tp4520
Rp4521
ag1
(g9
g3
((lp4522
I77036
aI77037
aI77038
aI26015
aI77039
aI77040
aI77041
aI77028
aI77028
F14.0
I-1
tp4523
tp4524
Rp4525
ag1
(g9
g3
((lp4526
I77036
aI77037
aI77038
aI26015
aI77039
aI77040
aI77041
aI77028
aI77029
aI77029
F16.0
I-1
tp4527
tp4528
Rp4529
ag1
(g9
g3
((lp4530
I77036
aI77037
aI77038
aI26015
aI77039
aI77040
aI77041
aI77028
aI77029
aI77030
aI77030
F18.0
I-1
tp4531
tp4532
Rp4533
ag1
(g9
g3
((lp4534
I77036
aI77035
aI77034
aI77034
F6.0
I-1
tp4535
tp4536
Rp4537
ag1
(g9
g3
((lp4538
I77036
aI77035
aI77035
F2.0
I-1
tp4539
tp4540
Rp4541
ag1
(g9
g3
((lp4542
I77036
aI77037
aI77037
F3.0
I-1
tp4543
tp4544
Rp4545
ag1
(g9
g3
((lp4546
I77036
aI77037
aI77038
aI77038
F5.0
I-1
tp4547
tp4548
Rp4549
ag1
(g9
g3
((lp4550
I77036
aI77037
aI77038
aI26015
aI77039
aI77039
F9.0
I-1
tp4551
tp4552
Rp4553
ag1
(g9
g3
((lp4554
I77036
aI77037
aI77038
aI26015
aI77039
aI77040
aI77040
F11.0
I-1
tp4555
tp4556
Rp4557
ag1
(g9
g3
((lp4558
I77036
aI77037
aI77038
aI26015
aI77039
aI77040
aI77041
aI77041
F13.0
I-1
tp4559
tp4560
Rp4561
ag1
(g9
g3
((lp4562
I77036
aI77037
aI77038
aI26015
aI77039
aI77040
aI77041
aI77028
aI77029
aI77030
aI65759
aI65759
F20.0
I-1
tp4563
tp4564
Rp4565
ag1
(g9
g3
((lp4566
I77036
aI77037
aI77038
aI26015
aI26015
F6.0
I-1
tp4567
tp4568
Rp4569
atp4570
tp4571
Rp4572
sI77037
g1
(g2
g3
(I77037
F32.1077853
F34.8103291
(lp4573
g1
(g9
g3
((lp4574
I77037
aI77036
aI77035
aI77034
aI77026
aI77026
F11.0
I-1
tp4575
tp4576
Rp4577
ag1
(g9
g3
((lp4578
I77037
aI77038
aI26015
aI77039
aI77040
aI77041
aI77028
aI77028
F11.0
I-1
tp4579
tp4580
Rp4581
ag1
(g9
g3
((lp4582
I77037
aI77038
aI26015
aI77039
aI77040
aI77041
aI77028
aI77029
aI77029
F13.0
I-1
tp4583
tp4584
Rp4585
ag1
(g9
g3
((lp4586
I77037
aI77038
aI26015
aI77039
aI77040
aI77041
aI77028
aI77029
aI77030
aI77030
F15.0
I-1
tp4587
tp4588
Rp4589
ag1
(g9
g3
((lp4590
I77037
aI77036
aI77035
aI77034
aI77034
F9.0
I-1
tp4591
tp4592
Rp4593
ag1
(g9
g3
((lp4594
I77037
aI77036
aI77035
aI77035
F5.0
I-1
tp4595
tp4596
Rp4597
ag1
(g9
g3
((lp4598
I77037
aI77036
aI77036
F3.0
I-1
tp4599
tp4600
Rp4601
ag1
(g9
g3
((lp4602
I77037
aI77038
aI77038
F2.0
I-1
tp4603
tp4604
Rp4605
ag1
(g9
g3
((lp4606
I77037
aI77038
aI26015
aI77039
aI77039
F6.0
I-1
tp4607
tp4608
Rp4609
ag1
(g9
g3
((lp4610
I77037
aI77038
aI26015
aI77039
aI77040
aI77040
F8.0
I-1
tp4611
tp4612
Rp4613
ag1
(g9
g3
((lp4614
I77037
aI77038
aI26015
aI77039
aI77040
aI77041
aI77041
F10.0
I-1
tp4615
tp4616
Rp4617
ag1
(g9
g3
((lp4618
I77037
aI77038
aI26015
aI77039
aI77040
aI77041
aI77028
aI77029
aI77030
aI65759
aI65759
F17.0
I-1
tp4619
tp4620
Rp4621
ag1
(g9
g3
((lp4622
I77037
aI77038
aI26015
aI26015
F3.0
I-1
tp4623
tp4624
Rp4625
atp4626
tp4627
Rp4628
sI77038
g1
(g2
g3
(I77038
F32.107801
F34.8103072
(lp4629
g1
(g9
g3
((lp4630
I77038
aI77037
aI77036
aI77035
aI77034
aI77026
aI77026
F13.0
I-1
tp4631
tp4632
Rp4633
ag1
(g9
g3
((lp4634
I77038
aI26015
aI77039
aI77040
aI77041
aI77028
aI77028
F9.0
I-1
tp4635
tp4636
Rp4637
ag1
(g9
g3
((lp4638
I77038
aI26015
aI77039
aI77040
aI77041
aI77028
aI77029
aI77029
F11.0
I-1
tp4639
tp4640
Rp4641
ag1
(g9
g3
((lp4642
I77038
aI26015
aI77039
aI77040
aI77041
aI77028
aI77029
aI77030
aI77030
F13.0
I-1
tp4643
tp4644
Rp4645
ag1
(g9
g3
((lp4646
I77038
aI77037
aI77036
aI77035
aI77034
aI77034
F11.0
I-1
tp4647
tp4648
Rp4649
ag1
(g9
g3
((lp4650
I77038
aI77037
aI77036
aI77035
aI77035
F7.0
I-1
tp4651
tp4652
Rp4653
ag1
(g9
g3
((lp4654
I77038
aI77037
aI77036
aI77036
F5.0
I-1
tp4655
tp4656
Rp4657
ag1
(g9
g3
((lp4658
I77038
aI77037
aI77037
F2.0
I-1
tp4659
tp4660
Rp4661
ag1
(g9
g3
((lp4662
I77038
aI26015
aI77039
aI77039
F4.0
I-1
tp4663
tp4664
Rp4665
ag1
(g9
g3
((lp4666
I77038
aI26015
aI77039
aI77040
aI77040
F6.0
I-1
tp4667
tp4668
Rp4669
ag1
(g9
g3
((lp4670
I77038
aI26015
aI77039
aI77040
aI77041
aI77041
F8.0
I-1
tp4671
tp4672
Rp4673
ag1
(g9
g3
((lp4674
I77038
aI26015
aI77039
aI77040
aI77041
aI77028
aI77029
aI77030
aI65759
aI65759
F15.0
I-1
tp4675
tp4676
Rp4677
ag1
(g9
g3
((lp4678
I77038
aI26015
aI26015
F1.0
I-1
tp4679
tp4680
Rp4681
atp4682
tp4683
Rp4684
sI77039
g1
(g2
g3
(I77039
F32.1078508
F34.8102882
(lp4685
g1
(g9
g3
((lp4686
I77039
aI26015
aI77038
aI77037
aI77036
aI77035
aI77034
aI77026
aI77026
F17.0
I-1
tp4687
tp4688
Rp4689
ag1
(g9
g3
((lp4690
I77039
aI77040
aI77041
aI77028
aI77028
F5.0
I-1
tp4691
tp4692
Rp4693
ag1
(g9
g3
((lp4694
I77039
aI77040
aI77041
aI77028
aI77029
aI77029
F7.0
I-1
tp4695
tp4696
Rp4697
ag1
(g9
g3
((lp4698
I77039
aI77040
aI77041
aI77028
aI77029
aI77030
aI77030
F9.0
I-1
tp4699
tp4700
Rp4701
ag1
(g9
g3
((lp4702
I77039
aI26015
aI77038
aI77037
aI77036
aI77035
aI77034
aI77034
F15.0
I-1
tp4703
tp4704
Rp4705
ag1
(g9
g3
((lp4706
I77039
aI26015
aI77038
aI77037
aI77036
aI77035
aI77035
F11.0
I-1
tp4707
tp4708
Rp4709
ag1
(g9
g3
((lp4710
I77039
aI26015
aI77038
aI77037
aI77036
aI77036
F9.0
I-1
tp4711
tp4712
Rp4713
ag1
(g9
g3
((lp4714
I77039
aI26015
aI77038
aI77037
aI77037
F6.0
I-1
tp4715
tp4716
Rp4717
ag1
(g9
g3
((lp4718
I77039
aI26015
aI77038
aI77038
F4.0
I-1
tp4719
tp4720
Rp4721
ag1
(g9
g3
((lp4722
I77039
aI77040
aI77040
F2.0
I-1
tp4723
tp4724
Rp4725
ag1
(g9
g3
((lp4726
I77039
aI77040
aI77041
aI77041
F4.0
I-1
tp4727
tp4728
Rp4729
ag1
(g9
g3
((lp4730
I77039
aI77040
aI77041
aI77028
aI77029
aI77030
aI65759
aI65759
F11.0
I-1
tp4731
tp4732
Rp4733
ag1
(g9
g3
((lp4734
I77039
aI26015
aI26015
F3.0
I-1
tp4735
tp4736
Rp4737
atp4738
tp4739
Rp4740
sI77040
g1
(g2
g3
(I77040
F32.1078744
F34.8102951
(lp4741
g1
(g9
g3
((lp4742
I77040
aI77039
aI26015
aI77038
aI77037
aI77036
aI77035
aI77034
aI77026
aI77026
F19.0
I-1
tp4743
tp4744
Rp4745
ag1
(g9
g3
((lp4746
I77040
aI77041
aI77028
aI77028
F3.0
I-1
tp4747
tp4748
Rp4749
ag1
(g9
g3
((lp4750
I77040
aI77041
aI77028
aI77029
aI77029
F5.0
I-1
tp4751
tp4752
Rp4753
ag1
(g9
g3
((lp4754
I77040
aI77041
aI77028
aI77029
aI77030
aI77030
F7.0
I-1
tp4755
tp4756
Rp4757
ag1
(g9
g3
((lp4758
I77040
aI77039
aI26015
aI77038
aI77037
aI77036
aI77035
aI77034
aI77034
F17.0
I-1
tp4759
tp4760
Rp4761
ag1
(g9
g3
((lp4762
I77040
aI77039
aI26015
aI77038
aI77037
aI77036
aI77035
aI77035
F13.0
I-1
tp4763
tp4764
Rp4765
ag1
(g9
g3
((lp4766
I77040
aI77039
aI26015
aI77038
aI77037
aI77036
aI77036
F11.0
I-1
tp4767
tp4768
Rp4769
ag1
(g9
g3
((lp4770
I77040
aI77039
aI26015
aI77038
aI77037
aI77037
F8.0
I-1
tp4771
tp4772
Rp4773
ag1
(g9
g3
((lp4774
I77040
aI77039
aI26015
aI77038
aI77038
F6.0
I-1
tp4775
tp4776
Rp4777
ag1
(g9
g3
((lp4778
I77040
aI77039
aI77039
F2.0
I-1
tp4779
tp4780
Rp4781
ag1
(g9
g3
((lp4782
I77040
aI77041
aI77041
F2.0
I-1
tp4783
tp4784
Rp4785
ag1
(g9
g3
((lp4786
I77040
aI77041
aI77028
aI77029
aI77030
aI65759
aI65759
F9.0
I-1
tp4787
tp4788
Rp4789
ag1
(g9
g3
((lp4790
I77040
aI77039
aI26015
aI26015
F5.0
I-1
tp4791
tp4792
Rp4793
atp4794
tp4795
Rp4796
sI77041
g1
(g2
g3
(I77041
F32.1078946
F34.8103112
(lp4797
g1
(g9
g3
((lp4798
I77041
aI77040
aI77039
aI26015
aI77038
aI77037
aI77036
aI77035
aI77034
aI77026
aI77026
F21.0
I-1
tp4799
tp4800
Rp4801
ag1
(g9
g3
((lp4802
I77041
aI77028
aI77028
F1.0
I-1
tp4803
tp4804
Rp4805
ag1
(g9
g3
((lp4806
I77041
aI77028
aI77029
aI77029
F3.0
I-1
tp4807
tp4808
Rp4809
ag1
(g9
g3
((lp4810
I77041
aI77028
aI77029
aI77030
aI77030
F5.0
I-1
tp4811
tp4812
Rp4813
ag1
(g9
g3
((lp4814
I77041
aI77040
aI77039
aI26015
aI77038
aI77037
aI77036
aI77035
aI77034
aI77034
F19.0
I-1
tp4815
tp4816
Rp4817
ag1
(g9
g3
((lp4818
I77041
aI77040
aI77039
aI26015
aI77038
aI77037
aI77036
aI77035
aI77035
F15.0
I-1
tp4819
tp4820
Rp4821
ag1
(g9
g3
((lp4822
I77041
aI77040
aI77039
aI26015
aI77038
aI77037
aI77036
aI77036
F13.0
I-1
tp4823
tp4824
Rp4825
ag1
(g9
g3
((lp4826
I77041
aI77040
aI77039
aI26015
aI77038
aI77037
aI77037
F10.0
I-1
tp4827
tp4828
Rp4829
ag1
(g9
g3
((lp4830
I77041
aI77040
aI77039
aI26015
aI77038
aI77038
F8.0
I-1
tp4831
tp4832
Rp4833
ag1
(g9
g3
((lp4834
I77041
aI77040
aI77039
aI77039
F4.0
I-1
tp4835
tp4836
Rp4837
ag1
(g9
g3
((lp4838
I77041
aI77040
aI77040
F2.0
I-1
tp4839
tp4840
Rp4841
ag1
(g9
g3
((lp4842
I77041
aI77028
aI77029
aI77030
aI65759
aI65759
F7.0
I-1
tp4843
tp4844
Rp4845
ag1
(g9
g3
((lp4846
I77041
aI77040
aI77039
aI26015
aI26015
F7.0
I-1
tp4847
tp4848
Rp4849
atp4850
tp4851
Rp4852
sI37419
g1
(g2
g3
(I37419
F32.1321806
F34.8423493
(lp4853
tp4854
tp4855
Rp4856
sI27918
g1
(g2
g3
(I27918
F32.1004574
F34.8484945
(lp4857
g1
(g9
g3
((lp4858
I27918
aI74046
aI74047
aI74047
F70.0
I-1
tp4859
tp4860
Rp4861
ag1
(g9
g3
((lp4862
I27918
aI74046
aI74046
F17.0
I-1
tp4863
tp4864
Rp4865
ag1
(g9
g3
((lp4866
I27918
aI27919
aI27919
F31.0
I-1
tp4867
tp4868
Rp4869
atp4870
tp4871
Rp4872
sI27919
g1
(g2
g3
(I27919
F32.1001699
F34.8485015
(lp4873
g1
(g9
g3
((lp4874
I27919
aI27918
aI74046
aI74047
aI74047
F101.0
I-1
tp4875
tp4876
Rp4877
ag1
(g9
g3
((lp4878
I27919
aI27918
aI74046
aI74046
F48.0
I-1
tp4879
tp4880
Rp4881
ag1
(g9
g3
((lp4882
I27919
aI27918
aI27918
F31.0
I-1
tp4883
tp4884
Rp4885
atp4886
tp4887
Rp4888
sI24451
g1
(g2
g3
(I24451
F31.8870649
F34.7931475
(lp4889
tp4890
tp4891
Rp4892
sI38166
g1
(g2
g3
(I38166
F31.900906
F34.799461
(lp4893
g1
(g9
g3
((lp4894
I38166
aI38167
aI38167
F66.0
I-1
tp4895
tp4896
Rp4897
atp4898
tp4899
Rp4900
sI38167
g1
(g2
g3
(I38167
F31.9009589
F34.7987622
(lp4901
g1
(g9
g3
((lp4902
I38167
aI38166
aI38166
F66.0
I-1
tp4903
tp4904
Rp4905
atp4906
tp4907
Rp4908
sI86311
g1
(g2
g3
(I86311
F32.1873086
F34.8914085
(lp4909
tp4910
tp4911
Rp4912
sI15652
g1
(g2
g3
(I15652
F32.1672741
F34.8349456
(lp4913
tp4914
tp4915
Rp4916
sI11560
g1
(g2
g3
(I11560
F32.0281442
F34.7464323
(lp4917
tp4918
tp4919
Rp4920
sI58671
g1
(g2
g3
(I58671
F32.210801
F34.8839591
(lp4921
g1
(g9
g3
((lp4922
I58671
aI23540
aI23540
F14.0
I-1
tp4923
tp4924
Rp4925
ag1
(g9
g3
((lp4926
I58671
aI23405
aI23405
F39.0
I-1
tp4927
tp4928
Rp4929
ag1
(g9
g3
((lp4930
I58671
aI23405
aI23406
aI23406
F57.0
I-1
tp4931
tp4932
Rp4933
atp4934
tp4935
Rp4936
sI79166
g1
(g2
g3
(I79166
F32.0538844
F34.779971
(lp4937
g1
(g9
g3
((lp4938
I79166
aI18160
aI18160
F4.0
I-1
tp4939
tp4940
Rp4941
atp4942
tp4943
Rp4944
sI5442
g1
(g2
g3
(I5442
F32.0953677
F34.7743284
(lp4945
g1
(g9
g3
((lp4946
I5442
aI14570
aI14570
F27.0
I-1
tp4947
tp4948
Rp4949
ag1
(g9
g3
((lp4950
I5442
aI14571
aI14571
F38.0
I-1
tp4951
tp4952
Rp4953
ag1
(g9
g3
((lp4954
I5442
aI14571
aI14572
aI14572
F54.0
I-1
tp4955
tp4956
Rp4957
ag1
(g9
g3
((lp4958
I5442
aI14570
aI31055
aI31055
F58.0
I-1
tp4959
tp4960
Rp4961
ag1
(g9
g3
((lp4962
I5442
aI14570
aI31055
aI5169
aI5169
F84.0
I-1
tp4963
tp4964
Rp4965
ag1
(g9
g3
((lp4966
I5442
aI14571
aI14572
aI5172
aI5172
F180.0
I-1
tp4967
tp4968
Rp4969
ag1
(g9
g3
((lp4970
I5442
aI14570
aI5173
aI5173
F103.0
I-1
tp4971
tp4972
Rp4973
atp4974
tp4975
Rp4976
sI13642
g1
(g2
g3
(I13642
F31.9890656
F34.7860304
(lp4977
g1
(g9
g3
((lp4978
I13642
aI13245
aI13244
aI13244
F35.0
I-1
tp4979
tp4980
Rp4981
ag1
(g9
g3
((lp4982
I13642
aI13245
aI13245
F10.0
I-1
tp4983
tp4984
Rp4985
atp4986
tp4987
Rp4988
sI15692
g1
(g2
g3
(I15692
F32.1672212
F34.8461532
(lp4989
g1
(g9
g3
((lp4990
I15692
aI15693
aI15693
F2.0
I-1
tp4991
tp4992
Rp4993
atp4994
tp4995
Rp4996
sI15693
g1
(g2
g3
(I15693
F32.1672365
F34.8461295
(lp4997
g1
(g9
g3
((lp4998
I15693
aI15692
aI15692
F2.0
I-1
tp4999
tp5000
Rp5001
atp5002
tp5003
Rp5004
sI83172
g1
(g2
g3
(I83172
F32.0663557
F34.8211229
(lp5005
tp5006
tp5007
Rp5008
sI5467
g1
(g2
g3
(I5467
F32.0792527
F34.8152477
(lp5009
g1
(g9
g3
((lp5010
I5467
aI82193
aI82193
F41.0
I-1
tp5011
tp5012
Rp5013
ag1
(g9
g3
((lp5014
I5467
aI82193
aI82194
aI82194
F73.0
I-1
tp5015
tp5016
Rp5017
ag1
(g9
g3
((lp5018
I5467
aI82193
aI82194
aI82199
aI82199
F180.0
I-1
tp5019
tp5020
Rp5021
atp5022
tp5023
Rp5024
sI7518
g1
(g2
g3
(I7518
F32.0312222
F34.8663513
(lp5025
tp5026
tp5027
Rp5028
sI25953
g1
(g2
g3
(I25953
F32.116666
F34.8152151
(lp5029
g1
(g9
g3
((lp5030
I25953
aI26003
aI26002
aI26002
F6.0
I-1
tp5031
tp5032
Rp5033
ag1
(g9
g3
((lp5034
I25953
aI26003
aI26003
F3.0
I-1
tp5035
tp5036
Rp5037
ag1
(g9
g3
((lp5038
I25953
aI25990
aI25990
F3.0
I-1
tp5039
tp5040
Rp5041
ag1
(g9
g3
((lp5042
I25953
aI25990
aI25991
aI25991
F6.0
I-1
tp5043
tp5044
Rp5045
atp5046
tp5047
Rp5048
sI77030
g1
(g2
g3
(I77030
F32.1079158
F34.8103764
(lp5049
g1
(g9
g3
((lp5050
I77030
aI77029
aI77028
aI77041
aI77040
aI77039
aI26015
aI77038
aI77037
aI77036
aI77035
aI77034
aI77026
aI77026
F26.0
I-1
tp5051
tp5052
Rp5053
ag1
(g9
g3
((lp5054
I77030
aI77029
aI77028
aI77028
F4.0
I-1
tp5055
tp5056
Rp5057
ag1
(g9
g3
((lp5058
I77030
aI77029
aI77029
F2.0
I-1
tp5059
tp5060
Rp5061
ag1
(g9
g3
((lp5062
I77030
aI77029
aI77028
aI77041
aI77040
aI77039
aI26015
aI77038
aI77037
aI77036
aI77035
aI77034
aI77034
F24.0
I-1
tp5063
tp5064
Rp5065
ag1
(g9
g3
((lp5066
I77030
aI77029
aI77028
aI77041
aI77040
aI77039
aI26015
aI77038
aI77037
aI77036
aI77035
aI77035
F20.0
I-1
tp5067
tp5068
Rp5069
ag1
(g9
g3
((lp5070
I77030
aI77029
aI77028
aI77041
aI77040
aI77039
aI26015
aI77038
aI77037
aI77036
aI77036
F18.0
I-1
tp5071
tp5072
Rp5073
ag1
(g9
g3
((lp5074
I77030
aI77029
aI77028
aI77041
aI77040
aI77039
aI26015
aI77038
aI77037
aI77037
F15.0
I-1
tp5075
tp5076
Rp5077
ag1
(g9
g3
((lp5078
I77030
aI77029
aI77028
aI77041
aI77040
aI77039
aI26015
aI77038
aI77038
F13.0
I-1
tp5079
tp5080
Rp5081
ag1
(g9
g3
((lp5082
I77030
aI77029
aI77028
aI77041
aI77040
aI77039
aI77039
F9.0
I-1
tp5083
tp5084
Rp5085
ag1
(g9
g3
((lp5086
I77030
aI77029
aI77028
aI77041
aI77040
aI77040
F7.0
I-1
tp5087
tp5088
Rp5089
ag1
(g9
g3
((lp5090
I77030
aI77029
aI77028
aI77041
aI77041
F5.0
I-1
tp5091
tp5092
Rp5093
ag1
(g9
g3
((lp5094
I77030
aI77029
aI77028
aI77041
aI77040
aI77039
aI26015
aI26015
F12.0
I-1
tp5095
tp5096
Rp5097
ag1
(g9
g3
((lp5098
I77030
aI65759
aI65759
F2.0
I-1
tp5099
tp5100
Rp5101
atp5102
tp5103
Rp5104
sI59281
g1
(g2
g3
(I59281
F31.9298142
F34.7877573
(lp5105
g1
(g9
g3
((lp5106
I59281
aI59266
aI59266
F7.0
I-1
tp5107
tp5108
Rp5109
ag1
(g9
g3
((lp5110
I59281
aI59266
aI59267
aI59267
F13.0
I-1
tp5111
tp5112
Rp5113
ag1
(g9
g3
((lp5114
I59281
aI59266
aI59267
aI59268
aI59268
F20.0
I-1
tp5115
tp5116
Rp5117
ag1
(g9
g3
((lp5118
I59281
aI59266
aI59267
aI59268
aI59269
aI59269
F26.0
I-1
tp5119
tp5120
Rp5121
atp5122
tp5123
Rp5124
sI21873
g1
(g2
g3
(I21873
F32.0654716
F34.7646411
(lp5125
g1
(g9
g3
((lp5126
I21873
aI15041
aI21887
aI21887
F13.0
I-1
tp5127
tp5128
Rp5129
ag1
(g9
g3
((lp5130
I21873
aI15041
aI15041
F6.0
I-1
tp5131
tp5132
Rp5133
atp5134
tp5135
Rp5136
sI60790
g1
(g2
g3
(I60790
F31.8884017
F34.8195061
(lp5137
tp5138
tp5139
Rp5140
sI21883
g1
(g2
g3
(I21883
F32.0655958
F34.7649625
(lp5141
tp5142
tp5143
Rp5144
sI2282
g1
(g2
g3
(I2282
F32.088588
F34.8205841
(lp5145
g1
(g9
g3
((lp5146
I2282
aI82189
aI82188
aI82187
aI82187
F125.0
I-1
tp5147
tp5148
Rp5149
ag1
(g9
g3
((lp5150
I2282
aI82189
aI82188
aI82188
F60.0
I-1
tp5151
tp5152
Rp5153
ag1
(g9
g3
((lp5154
I2282
aI82189
aI82189
F17.0
I-1
tp5155
tp5156
Rp5157
ag1
(g9
g3
((lp5158
I2282
aI82190
aI82190
F82.0
I-1
tp5159
tp5160
Rp5161
ag1
(g9
g3
((lp5162
I2282
aI82190
aI82191
aI82191
F137.0
I-1
tp5163
tp5164
Rp5165
ag1
(g9
g3
((lp5166
I2282
aI82190
aI82191
aI82192
aI82192
F175.0
I-1
tp5167
tp5168
Rp5169
ag1
(g9
g3
((lp5170
I2282
aI82189
aI82188
aI82187
aI82186
aI68787
aI68787
F376.0
I-1
tp5171
tp5172
Rp5173
ag1
(g9
g3
((lp5174
I2282
aI82189
aI82188
aI82187
aI82186
aI68787
aI68788
aI68788
F465.0
I-1
tp5175
tp5176
Rp5177
ag1
(g9
g3
((lp5178
I2282
aI82189
aI82188
aI82187
aI82186
aI82186
F196.0
I-1
tp5179
tp5180
Rp5181
atp5182
tp5183
Rp5184
sI21887
g1
(g2
g3
(I21887
F32.0655867
F34.7646893
(lp5185
g1
(g9
g3
((lp5186
I21887
aI15041
aI15041
F7.0
I-1
tp5187
tp5188
Rp5189
ag1
(g9
g3
((lp5190
I21887
aI15041
aI21873
aI21873
F13.0
I-1
tp5191
tp5192
Rp5193
atp5194
tp5195
Rp5196
sI5504
g1
(g2
g3
(I5504
F32.1788479
F34.8057846
(lp5197
g1
(g9
g3
((lp5198
I5504
aI5505
aI5505
F6.0
I-1
tp5199
tp5200
Rp5201
ag1
(g9
g3
((lp5202
I5504
aI5327
aI5327
F5.0
I-1
tp5203
tp5204
Rp5205
atp5206
tp5207
Rp5208
sI5505
g1
(g2
g3
(I5505
F32.1788266
F34.8058463
(lp5209
g1
(g9
g3
((lp5210
I5505
aI5504
aI5504
F6.0
I-1
tp5211
tp5212
Rp5213
ag1
(g9
g3
((lp5214
I5505
aI5504
aI5327
aI5327
F11.0
I-1
tp5215
tp5216
Rp5217
atp5218
tp5219
Rp5220
sI25990
g1
(g2
g3
(I25990
F32.1166907
F34.8151901
(lp5221
g1
(g9
g3
((lp5222
I25990
aI25953
aI25953
F3.0
I-1
tp5223
tp5224
Rp5225
ag1
(g9
g3
((lp5226
I25990
aI25953
aI26003
aI26002
aI26002
F9.0
I-1
tp5227
tp5228
Rp5229
ag1
(g9
g3
((lp5230
I25990
aI25953
aI26003
aI26003
F6.0
I-1
tp5231
tp5232
Rp5233
ag1
(g9
g3
((lp5234
I25990
aI25991
aI25991
F3.0
I-1
tp5235
tp5236
Rp5237
atp5238
tp5239
Rp5240
sI25991
g1
(g2
g3
(I25991
F32.1167066
F34.8151567
(lp5241
g1
(g9
g3
((lp5242
I25991
aI25990
aI25953
aI25953
F6.0
I-1
tp5243
tp5244
Rp5245
ag1
(g9
g3
((lp5246
I25991
aI25990
aI25953
aI26003
aI26002
aI26002
F12.0
I-1
tp5247
tp5248
Rp5249
ag1
(g9
g3
((lp5250
I25991
aI25990
aI25953
aI26003
aI26003
F9.0
I-1
tp5251
tp5252
Rp5253
ag1
(g9
g3
((lp5254
I25991
aI25990
aI25990
F3.0
I-1
tp5255
tp5256
Rp5257
atp5258
tp5259
Rp5260
sI26002
g1
(g2
g3
(I26002
F32.1166004
F34.8152286
(lp5261
g1
(g9
g3
((lp5262
I26002
aI26003
aI25953
aI25953
F6.0
I-1
tp5263
tp5264
Rp5265
ag1
(g9
g3
((lp5266
I26002
aI26003
aI26003
F3.0
I-1
tp5267
tp5268
Rp5269
ag1
(g9
g3
((lp5270
I26002
aI26003
aI25953
aI25990
aI25990
F9.0
I-1
tp5271
tp5272
Rp5273
ag1
(g9
g3
((lp5274
I26002
aI26003
aI25953
aI25990
aI25991
aI25991
F12.0
I-1
tp5275
tp5276
Rp5277
atp5278
tp5279
Rp5280
sI28227
g1
(g2
g3
(I28227
F32.186126
F34.8187615
(lp5281
g1
(g9
g3
((lp5282
I28227
aI28248
aI28248
F3.0
I-1
tp5283
tp5284
Rp5285
ag1
(g9
g3
((lp5286
I28227
aI28248
aI28247
aI28247
F5.0
I-1
tp5287
tp5288
Rp5289
atp5290
tp5291
Rp5292
sI26015
g1
(g2
g3
(I26015
F32.1078159
F34.8102959
(lp5293
g1
(g9
g3
((lp5294
I26015
aI77038
aI77037
aI77036
aI77035
aI77034
aI77026
aI77026
F14.0
I-1
tp5295
tp5296
Rp5297
ag1
(g9
g3
((lp5298
I26015
aI77039
aI77040
aI77041
aI77028
aI77028
F8.0
I-1
tp5299
tp5300
Rp5301
ag1
(g9
g3
((lp5302
I26015
aI77039
aI77040
aI77041
aI77028
aI77029
aI77029
F10.0
I-1
tp5303
tp5304
Rp5305
ag1
(g9
g3
((lp5306
I26015
aI77039
aI77040
aI77041
aI77028
aI77029
aI77030
aI77030
F12.0
I-1
tp5307
tp5308
Rp5309
ag1
(g9
g3
((lp5310
I26015
aI77038
aI77037
aI77036
aI77035
aI77034
aI77034
F12.0
I-1
tp5311
tp5312
Rp5313
ag1
(g9
g3
((lp5314
I26015
aI77038
aI77037
aI77036
aI77035
aI77035
F8.0
I-1
tp5315
tp5316
Rp5317
ag1
(g9
g3
((lp5318
I26015
aI77038
aI77037
aI77036
aI77036
F6.0
I-1
tp5319
tp5320
Rp5321
ag1
(g9
g3
((lp5322
I26015
aI77038
aI77037
aI77037
F3.0
I-1
tp5323
tp5324
Rp5325
ag1
(g9
g3
((lp5326
I26015
aI77038
aI77038
F1.0
I-1
tp5327
tp5328
Rp5329
ag1
(g9
g3
((lp5330
I26015
aI77039
aI77039
F3.0
I-1
tp5331
tp5332
Rp5333
ag1
(g9
g3
((lp5334
I26015
aI77039
aI77040
aI77040
F5.0
I-1
tp5335
tp5336
Rp5337
ag1
(g9
g3
((lp5338
I26015
aI77039
aI77040
aI77041
aI77041
F7.0
I-1
tp5339
tp5340
Rp5341
ag1
(g9
g3
((lp5342
I26015
aI77039
aI77040
aI77041
aI77028
aI77029
aI77030
aI65759
aI65759
F14.0
I-1
tp5343
tp5344
Rp5345
atp5346
tp5347
Rp5348
sI32167
g1
(g2
g3
(I32167
F32.123025
F34.8085966
(lp5349
g1
(g9
g3
((lp5350
I32167
aI32340
aI32172
aI32172
F50.0
I-1
tp5351
tp5352
Rp5353
ag1
(g9
g3
((lp5354
I32167
aI32179
aI32179
F128.0
I-1
tp5355
tp5356
Rp5357
ag1
(g9
g3
((lp5358
I32167
aI32340
aI32340
F39.0
I-1
tp5359
tp5360
Rp5361
atp5362
tp5363
Rp5364
sI40360
g1
(g2
g3
(I40360
F32.0540913
F34.8139184
(lp5365
g1
(g9
g3
((lp5366
I40360
aI40361
aI40361
F44.0
I-1
tp5367
tp5368
Rp5369
ag1
(g9
g3
((lp5370
I40360
aI40361
aI40362
aI40362
F119.0
I-1
tp5371
tp5372
Rp5373
atp5374
tp5375
Rp5376
sI40361
g1
(g2
g3
(I40361
F32.0543125
F34.8135252
(lp5377
g1
(g9
g3
((lp5378
I40361
aI40360
aI40360
F44.0
I-1
tp5379
tp5380
Rp5381
ag1
(g9
g3
((lp5382
I40361
aI40362
aI40362
F75.0
I-1
tp5383
tp5384
Rp5385
atp5386
tp5387
Rp5388
sI40362
g1
(g2
g3
(I40362
F32.0546902
F34.8128541
(lp5389
g1
(g9
g3
((lp5390
I40362
aI40361
aI40360
aI40360
F119.0
I-1
tp5391
tp5392
Rp5393
ag1
(g9
g3
((lp5394
I40362
aI40361
aI40361
F75.0
I-1
tp5395
tp5396
Rp5397
atp5398
tp5399
Rp5400
sI32172
g1
(g2
g3
(I32172
F32.1228934
F34.8091199
(lp5401
g1
(g9
g3
((lp5402
I32172
aI32340
aI32340
F11.0
I-1
tp5403
tp5404
Rp5405
ag1
(g9
g3
((lp5406
I32172
aI32340
aI32167
aI32179
aI32179
F178.0
I-1
tp5407
tp5408
Rp5409
ag1
(g9
g3
((lp5410
I32172
aI32340
aI32167
aI32167
F50.0
I-1
tp5411
tp5412
Rp5413
atp5414
tp5415
Rp5416
sI44239
g1
(g2
g3
(I44239
F32.065809
F34.8472424
(lp5417
tp5418
tp5419
Rp5420
sI83379
g1
(g2
g3
(I83379
F32.0646937
F34.7967056
(lp5421
tp5422
tp5423
Rp5424
sI64950
g1
(g2
g3
(I64950
F32.0665197
F34.8580035
(lp5425
g1
(g9
g3
((lp5426
I64950
aI45257
aI45256
aI45256
F24.0
I-1
tp5427
tp5428
Rp5429
ag1
(g9
g3
((lp5430
I64950
aI45257
aI45257
F20.0
I-1
tp5431
tp5432
Rp5433
atp5434
tp5435
Rp5436
sI38473
g1
(g2
g3
(I38473
F32.0566314
F34.794579
(lp5437
g1
(g9
g3
((lp5438
I38473
aI38472
aI38472
F4.0
I-1
tp5439
tp5440
Rp5441
ag1
(g9
g3
((lp5442
I38473
aI38474
aI38474
F6.0
I-1
tp5443
tp5444
Rp5445
ag1
(g9
g3
((lp5446
I38473
aI38472
aI38471
aI38471
F9.0
I-1
tp5447
tp5448
Rp5449
atp5450
tp5451
Rp5452
sI19929
g1
(g2
g3
(I19929
F32.0556152
F34.7564791
(lp5453
g1
(g9
g3
((lp5454
I19929
aI68692
aI68692
F100.0
I-1
tp5455
tp5456
Rp5457
atp5458
tp5459
Rp5460
sI7647
g1
(g2
g3
(I7647
F31.9713108
F34.8101439
(lp5461
tp5462
tp5463
Rp5464
sI5603
g1
(g2
g3
(I5603
F32.0818252
F34.7917991
(lp5465
g1
(g9
g3
((lp5466
I5603
aI4476
aI17184
aI17184
F177.0
I-1
tp5467
tp5468
Rp5469
ag1
(g9
g3
((lp5470
I5603
aI4476
aI4476
F50.0
I-1
tp5471
tp5472
Rp5473
atp5474
tp5475
Rp5476
sI19941
g1
(g2
g3
(I19941
F32.0554731
F34.7565232
(lp5477
g1
(g9
g3
((lp5478
I19941
aI19942
aI19943
aI19944
aI19944
F9.0
I-1
tp5479
tp5480
Rp5481
ag1
(g9
g3
((lp5482
I19941
aI19942
aI19942
F3.0
I-1
tp5483
tp5484
Rp5485
ag1
(g9
g3
((lp5486
I19941
aI19942
aI19943
aI19943
F6.0
I-1
tp5487
tp5488
Rp5489
atp5490
tp5491
Rp5492
sI19942
g1
(g2
g3
(I19942
F32.0555009
F34.7565375
(lp5493
g1
(g9
g3
((lp5494
I19942
aI19943
aI19944
aI19944
F6.0
I-1
tp5495
tp5496
Rp5497
ag1
(g9
g3
((lp5498
I19942
aI19941
aI19941
F3.0
I-1
tp5499
tp5500
Rp5501
ag1
(g9
g3
((lp5502
I19942
aI19943
aI19943
F3.0
I-1
tp5503
tp5504
Rp5505
atp5506
tp5507
Rp5508
sI19943
g1
(g2
g3
(I19943
F32.0555358
F34.7565409
(lp5509
g1
(g9
g3
((lp5510
I19943
aI19944
aI19944
F3.0
I-1
tp5511
tp5512
Rp5513
ag1
(g9
g3
((lp5514
I19943
aI19942
aI19941
aI19941
F6.0
I-1
tp5515
tp5516
Rp5517
ag1
(g9
g3
((lp5518
I19943
aI19942
aI19942
F3.0
I-1
tp5519
tp5520
Rp5521
atp5522
tp5523
Rp5524
sI19944
g1
(g2
g3
(I19944
F32.0555695
F34.7565302
(lp5525
g1
(g9
g3
((lp5526
I19944
aI19943
aI19942
aI19941
aI19941
F9.0
I-1
tp5527
tp5528
Rp5529
ag1
(g9
g3
((lp5530
I19944
aI19943
aI19942
aI19942
F6.0
I-1
tp5531
tp5532
Rp5533
ag1
(g9
g3
((lp5534
I19944
aI19943
aI19943
F3.0
I-1
tp5535
tp5536
Rp5537
atp5538
tp5539
Rp5540
sI9810
g1
(g2
g3
(I9810
F32.093701
F34.801967
(lp5541
g1
(g9
g3
((lp5542
I9810
aI9811
aI9811
F191.0
I-1
tp5543
tp5544
Rp5545
ag1
(g9
g3
((lp5546
I9810
aI9811
aI9812
aI9812
F295.0
I-1
tp5547
tp5548
Rp5549
atp5550
tp5551
Rp5552
sI13808
g1
(g2
g3
(I13808
F31.953447
F34.8063956
(lp5553
g1
(g9
g3
((lp5554
I13808
aI13809
aI13809
F52.0
I-1
tp5555
tp5556
Rp5557
ag1
(g9
g3
((lp5558
I13808
aI13809
aI13810
aI13810
F68.0
I-1
tp5559
tp5560
Rp5561
ag1
(g9
g3
((lp5562
I13808
aI13809
aI13810
aI14051
aI14051
F75.0
I-1
tp5563
tp5564
Rp5565
ag1
(g9
g3
((lp5566
I13808
aI13809
aI13810
aI14220
aI14220
F119.0
I-1
tp5567
tp5568
Rp5569
atp5570
tp5571
Rp5572
sI13809
g1
(g2
g3
(I13809
F31.9535348
F34.8069394
(lp5573
g1
(g9
g3
((lp5574
I13809
aI13810
aI14220
aI13808
aI13808
F84.0
I-1
tp5575
tp5576
Rp5577
ag1
(g9
g3
((lp5578
I13809
aI13810
aI13810
F16.0
I-1
tp5579
tp5580
Rp5581
ag1
(g9
g3
((lp5582
I13809
aI13810
aI14051
aI14051
F23.0
I-1
tp5583
tp5584
Rp5585
ag1
(g9
g3
((lp5586
I13809
aI13810
aI14220
aI14220
F67.0
I-1
tp5587
tp5588
Rp5589
atp5590
tp5591
Rp5592
sI13810
g1
(g2
g3
(I13810
F31.9533876
F34.8069678
(lp5593
g1
(g9
g3
((lp5594
I13810
aI14220
aI13808
aI13808
F68.0
I-1
tp5595
tp5596
Rp5597
ag1
(g9
g3
((lp5598
I13810
aI14220
aI13808
aI13809
aI13809
F120.0
I-1
tp5599
tp5600
Rp5601
ag1
(g9
g3
((lp5602
I13810
aI14051
aI14051
F7.0
I-1
tp5603
tp5604
Rp5605
ag1
(g9
g3
((lp5606
I13810
aI14220
aI14220
F51.0
I-1
tp5607
tp5608
Rp5609
atp5610
tp5611
Rp5612
sI46675
g1
(g2
g3
(I46675
F32.0249101
F34.7790164
(lp5613
g1
(g9
g3
((lp5614
I46675
aI46674
aI46673
aI46672
aI46671
aI46670
aI46670
F28.0
I-1
tp5615
tp5616
Rp5617
ag1
(g9
g3
((lp5618
I46675
aI46674
aI46673
aI46672
aI46671
aI46671
F19.0
I-1
tp5619
tp5620
Rp5621
ag1
(g9
g3
((lp5622
I46675
aI46674
aI46673
aI46672
aI46672
F15.0
I-1
tp5623
tp5624
Rp5625
ag1
(g9
g3
((lp5626
I46675
aI46674
aI46673
aI46673
F10.0
I-1
tp5627
tp5628
Rp5629
ag1
(g9
g3
((lp5630
I46675
aI46674
aI46674
F5.0
I-1
tp5631
tp5632
Rp5633
ag1
(g9
g3
((lp5634
I46675
aI46676
aI46676
F4.0
I-1
tp5635
tp5636
Rp5637
atp5638
tp5639
Rp5640
sI9812
g1
(g2
g3
(I9812
F32.096329
F34.80244
(lp5641
g1
(g9
g3
((lp5642
I9812
aI9811
aI9810
aI9810
F295.0
I-1
tp5643
tp5644
Rp5645
ag1
(g9
g3
((lp5646
I9812
aI9811
aI9811
F104.0
I-1
tp5647
tp5648
Rp5649
atp5650
tp5651
Rp5652
sI28248
g1
(g2
g3
(I28248
F32.1861184
F34.8187299
(lp5653
g1
(g9
g3
((lp5654
I28248
aI28227
aI28227
F3.0
I-1
tp5655
tp5656
Rp5657
ag1
(g9
g3
((lp5658
I28248
aI28247
aI28247
F2.0
I-1
tp5659
tp5660
Rp5661
atp5662
tp5663
Rp5664
sI38418
g1
(g2
g3
(I38418
F32.1333017
F34.837531
(lp5665
tp5666
tp5667
Rp5668
sI54807
g1
(g2
g3
(I54807
F32.1678571
F34.8132103
(lp5669
tp5670
tp5671
Rp5672
sI81432
g1
(g2
g3
(I81432
F32.0671441
F34.7896334
(lp5673
tp5674
tp5675
Rp5676
sI81438
g1
(g2
g3
(I81438
F32.0687067
F34.7911088
(lp5677
tp5678
tp5679
Rp5680
sI70565
g1
(g2
g3
(I70565
F32.0252048
F34.7765959
(lp5681
tp5682
tp5683
Rp5684
sI81453
g1
(g2
g3
(I81453
F32.067364
F34.7879054
(lp5685
tp5686
tp5687
Rp5688
sI52783
g1
(g2
g3
(I52783
F32.0238093
F34.7591239
(lp5689
tp5690
tp5691
Rp5692
sI38448
g1
(g2
g3
(I38448
F32.0570716
F34.7893262
(lp5693
g1
(g9
g3
((lp5694
I38448
aI29110
aI29110
F40.0
I-1
tp5695
tp5696
Rp5697
atp5698
tp5699
Rp5700
sI46642
g1
(g2
g3
(I46642
F32.0251262
F34.7764985
(lp5701
tp5702
tp5703
Rp5704
sI38456
g1
(g2
g3
(I38456
F32.0571225
F34.7871547
(lp5705
g1
(g9
g3
((lp5706
I38456
aI38558
aI38565
aI38561
aI38561
F190.0
I-1
tp5707
tp5708
Rp5709
ag1
(g9
g3
((lp5710
I38456
aI38558
aI38565
aI38565
F132.0
I-1
tp5711
tp5712
Rp5713
ag1
(g9
g3
((lp5714
I38456
aI38558
aI38558
F89.0
I-1
tp5715
tp5716
Rp5717
ag1
(g9
g3
((lp5718
I38456
aI18021
aI18021
F170.0
I-1
tp5719
tp5720
Rp5721
atp5722
tp5723
Rp5724
sI38458
g1
(g2
g3
(I38458
F32.0570901
F34.788537
(lp5725
g1
(g9
g3
((lp5726
I38458
aI38448
aI38448
F74.0
I-1
tp5727
tp5728
Rp5729
ag1
(g9
g3
((lp5730
I38458
aI18019
aI18019
F170.0
I-1
tp5731
tp5732
Rp5733
ag1
(g9
g3
((lp5734
I38458
aI38448
aI29110
aI29110
F114.0
I-1
tp5735
tp5736
Rp5737
atp5738
tp5739
Rp5740
sI38462
g1
(g2
g3
(I38462
F32.0564346
F34.7944377
(lp5741
g1
(g9
g3
((lp5742
I38462
aI38464
aI38464
F7.0
I-1
tp5743
tp5744
Rp5745
atp5746
tp5747
Rp5748
sI52799
g1
(g2
g3
(I52799
F32.0173119
F34.7544374
(lp5749
g1
(g9
g3
((lp5750
I52799
aI76569
aI76569
F108.0
I-1
tp5751
tp5752
Rp5753
atp5754
tp5755
Rp5756
sI38464
g1
(g2
g3
(I38464
F32.056493
F34.7944052
(lp5757
g1
(g9
g3
((lp5758
I38464
aI38462
aI38462
F7.0
I-1
tp5759
tp5760
Rp5761
atp5762
tp5763
Rp5764
sI11842
g1
(g2
g3
(I11842
F32.1430466
F34.806159
(lp5765
g1
(g9
g3
((lp5766
I11842
aI11843
aI11843
F5.0
I-1
tp5767
tp5768
Rp5769
ag1
(g9
g3
((lp5770
I11842
aI11843
aI11844
aI11844
F10.0
I-1
tp5771
tp5772
Rp5773
ag1
(g9
g3
((lp5774
I11842
aI11843
aI11844
aI11845
aI11845
F15.0
I-1
tp5775
tp5776
Rp5777
ag1
(g9
g3
((lp5778
I11842
aI11843
aI11844
aI11845
aI11846
aI11846
F20.0
I-1
tp5779
tp5780
Rp5781
atp5782
tp5783
Rp5784
sI11843
g1
(g2
g3
(I11843
F32.143063
F34.8062119
(lp5785
g1
(g9
g3
((lp5786
I11843
aI11842
aI11842
F5.0
I-1
tp5787
tp5788
Rp5789
ag1
(g9
g3
((lp5790
I11843
aI11844
aI11844
F5.0
I-1
tp5791
tp5792
Rp5793
ag1
(g9
g3
((lp5794
I11843
aI11844
aI11845
aI11845
F10.0
I-1
tp5795
tp5796
Rp5797
ag1
(g9
g3
((lp5798
I11843
aI11844
aI11845
aI11846
aI11846
F15.0
I-1
tp5799
tp5800
Rp5801
atp5802
tp5803
Rp5804
sI11844
g1
(g2
g3
(I11844
F32.1430966
F34.8062574
(lp5805
g1
(g9
g3
((lp5806
I11844
aI11843
aI11842
aI11842
F10.0
I-1
tp5807
tp5808
Rp5809
ag1
(g9
g3
((lp5810
I11844
aI11843
aI11843
F5.0
I-1
tp5811
tp5812
Rp5813
ag1
(g9
g3
((lp5814
I11844
aI11845
aI11845
F5.0
I-1
tp5815
tp5816
Rp5817
ag1
(g9
g3
((lp5818
I11844
aI11845
aI11846
aI11846
F10.0
I-1
tp5819
tp5820
Rp5821
atp5822
tp5823
Rp5824
sI11845
g1
(g2
g3
(I11845
F32.1431394
F34.8062847
(lp5825
g1
(g9
g3
((lp5826
I11845
aI11844
aI11843
aI11842
aI11842
F15.0
I-1
tp5827
tp5828
Rp5829
ag1
(g9
g3
((lp5830
I11845
aI11844
aI11843
aI11843
F10.0
I-1
tp5831
tp5832
Rp5833
ag1
(g9
g3
((lp5834
I11845
aI11844
aI11844
F5.0
I-1
tp5835
tp5836
Rp5837
ag1
(g9
g3
((lp5838
I11845
aI11846
aI11846
F5.0
I-1
tp5839
tp5840
Rp5841
atp5842
tp5843
Rp5844
sI11846
g1
(g2
g3
(I11846
F32.1431876
F34.8062931
(lp5845
g1
(g9
g3
((lp5846
I11846
aI11845
aI11844
aI11843
aI11842
aI11842
F20.0
I-1
tp5847
tp5848
Rp5849
ag1
(g9
g3
((lp5850
I11846
aI11845
aI11844
aI11843
aI11843
F15.0
I-1
tp5851
tp5852
Rp5853
ag1
(g9
g3
((lp5854
I11846
aI11845
aI11844
aI11844
F10.0
I-1
tp5855
tp5856
Rp5857
ag1
(g9
g3
((lp5858
I11846
aI11845
aI11845
F5.0
I-1
tp5859
tp5860
Rp5861
atp5862
tp5863
Rp5864
sI38471
g1
(g2
g3
(I38471
F32.0565546
F34.7946428
(lp5865
g1
(g9
g3
((lp5866
I38471
aI38472
aI38472
F5.0
I-1
tp5867
tp5868
Rp5869
ag1
(g9
g3
((lp5870
I38471
aI38472
aI38473
aI38473
F9.0
I-1
tp5871
tp5872
Rp5873
ag1
(g9
g3
((lp5874
I38471
aI38472
aI38473
aI38474
aI38474
F15.0
I-1
tp5875
tp5876
Rp5877
atp5878
tp5879
Rp5880
sI38472
g1
(g2
g3
(I38472
F32.0566033
F34.794616
(lp5881
g1
(g9
g3
((lp5882
I38472
aI38473
aI38473
F4.0
I-1
tp5883
tp5884
Rp5885
ag1
(g9
g3
((lp5886
I38472
aI38473
aI38474
aI38474
F10.0
I-1
tp5887
tp5888
Rp5889
ag1
(g9
g3
((lp5890
I38472
aI38471
aI38471
F5.0
I-1
tp5891
tp5892
Rp5893
atp5894
tp5895
Rp5896
sI24844
g1
(g2
g3
(I24844
F32.0661852
F34.8056912
(lp5897
g1
(g9
g3
((lp5898
I24844
aI81677
aI81677
F29.0
I-1
tp5899
tp5900
Rp5901
atp5902
tp5903
Rp5904
sI38474
g1
(g2
g3
(I38474
F32.0566438
F34.7945168
(lp5905
g1
(g9
g3
((lp5906
I38474
aI38473
aI38472
aI38472
F10.0
I-1
tp5907
tp5908
Rp5909
ag1
(g9
g3
((lp5910
I38474
aI38473
aI38473
F6.0
I-1
tp5911
tp5912
Rp5913
ag1
(g9
g3
((lp5914
I38474
aI38473
aI38472
aI38471
aI38471
F15.0
I-1
tp5915
tp5916
Rp5917
atp5918
tp5919
Rp5920
sI46670
g1
(g2
g3
(I46670
F32.0251376
F34.7789034
(lp5921
g1
(g9
g3
((lp5922
I46670
aI46671
aI46671
F9.0
I-1
tp5923
tp5924
Rp5925
ag1
(g9
g3
((lp5926
I46670
aI46671
aI46672
aI46672
F13.0
I-1
tp5927
tp5928
Rp5929
ag1
(g9
g3
((lp5930
I46670
aI46671
aI46672
aI46673
aI46673
F18.0
I-1
tp5931
tp5932
Rp5933
ag1
(g9
g3
((lp5934
I46670
aI46671
aI46672
aI46673
aI46674
aI46674
F23.0
I-1
tp5935
tp5936
Rp5937
ag1
(g9
g3
((lp5938
I46670
aI46671
aI46672
aI46673
aI46674
aI46675
aI46675
F28.0
I-1
tp5939
tp5940
Rp5941
ag1
(g9
g3
((lp5942
I46670
aI46671
aI46672
aI46673
aI46674
aI46675
aI46676
aI46676
F32.0
I-1
tp5943
tp5944
Rp5945
atp5946
tp5947
Rp5948
sI46671
g1
(g2
g3
(I46671
F32.0250572
F34.7788772
(lp5949
g1
(g9
g3
((lp5950
I46671
aI46670
aI46670
F9.0
I-1
tp5951
tp5952
Rp5953
ag1
(g9
g3
((lp5954
I46671
aI46672
aI46672
F4.0
I-1
tp5955
tp5956
Rp5957
ag1
(g9
g3
((lp5958
I46671
aI46672
aI46673
aI46673
F9.0
I-1
tp5959
tp5960
Rp5961
ag1
(g9
g3
((lp5962
I46671
aI46672
aI46673
aI46674
aI46674
F14.0
I-1
tp5963
tp5964
Rp5965
ag1
(g9
g3
((lp5966
I46671
aI46672
aI46673
aI46674
aI46675
aI46675
F19.0
I-1
tp5967
tp5968
Rp5969
ag1
(g9
g3
((lp5970
I46671
aI46672
aI46673
aI46674
aI46675
aI46676
aI46676
F23.0
I-1
tp5971
tp5972
Rp5973
atp5974
tp5975
Rp5976
sI46672
g1
(g2
g3
(I46672
F32.0250134
F34.778885
(lp5977
g1
(g9
g3
((lp5978
I46672
aI46671
aI46670
aI46670
F13.0
I-1
tp5979
tp5980
Rp5981
ag1
(g9
g3
((lp5982
I46672
aI46671
aI46671
F4.0
I-1
tp5983
tp5984
Rp5985
ag1
(g9
g3
((lp5986
I46672
aI46673
aI46673
F5.0
I-1
tp5987
tp5988
Rp5989
ag1
(g9
g3
((lp5990
I46672
aI46673
aI46674
aI46674
F10.0
I-1
tp5991
tp5992
Rp5993
ag1
(g9
g3
((lp5994
I46672
aI46673
aI46674
aI46675
aI46675
F15.0
I-1
tp5995
tp5996
Rp5997
ag1
(g9
g3
((lp5998
I46672
aI46673
aI46674
aI46675
aI46676
aI46676
F19.0
I-1
tp5999
tp6000
Rp6001
atp6002
tp6003
Rp6004
sI46673
g1
(g2
g3
(I46673
F32.0249665
F34.7789134
(lp6005
g1
(g9
g3
((lp6006
I46673
aI46672
aI46671
aI46670
aI46670
F18.0
I-1
tp6007
tp6008
Rp6009
ag1
(g9
g3
((lp6010
I46673
aI46672
aI46671
aI46671
F9.0
I-1
tp6011
tp6012
Rp6013
ag1
(g9
g3
((lp6014
I46673
aI46672
aI46672
F5.0
I-1
tp6015
tp6016
Rp6017
ag1
(g9
g3
((lp6018
I46673
aI46674
aI46674
F5.0
I-1
tp6019
tp6020
Rp6021
ag1
(g9
g3
((lp6022
I46673
aI46674
aI46675
aI46675
F10.0
I-1
tp6023
tp6024
Rp6025
ag1
(g9
g3
((lp6026
I46673
aI46674
aI46675
aI46676
aI46676
F14.0
I-1
tp6027
tp6028
Rp6029
atp6030
tp6031
Rp6032
sI46674
g1
(g2
g3
(I46674
F32.0249306
F34.778959
(lp6033
g1
(g9
g3
((lp6034
I46674
aI46673
aI46672
aI46671
aI46670
aI46670
F23.0
I-1
tp6035
tp6036
Rp6037
ag1
(g9
g3
((lp6038
I46674
aI46673
aI46672
aI46671
aI46671
F14.0
I-1
tp6039
tp6040
Rp6041
ag1
(g9
g3
((lp6042
I46674
aI46673
aI46672
aI46672
F10.0
I-1
tp6043
tp6044
Rp6045
ag1
(g9
g3
((lp6046
I46674
aI46673
aI46673
F5.0
I-1
tp6047
tp6048
Rp6049
ag1
(g9
g3
((lp6050
I46674
aI46675
aI46675
F5.0
I-1
tp6051
tp6052
Rp6053
ag1
(g9
g3
((lp6054
I46674
aI46675
aI46676
aI46676
F9.0
I-1
tp6055
tp6056
Rp6057
atp6058
tp6059
Rp6060
sI9811
g1
(g2
g3
(I9811
F32.095404
F34.802268
(lp6061
g1
(g9
g3
((lp6062
I9811
aI9810
aI9810
F191.0
I-1
tp6063
tp6064
Rp6065
ag1
(g9
g3
((lp6066
I9811
aI9812
aI9812
F104.0
I-1
tp6067
tp6068
Rp6069
atp6070
tp6071
Rp6072
sI32340
g1
(g2
g3
(I32340
F32.1229223
F34.8090018
(lp6073
g1
(g9
g3
((lp6074
I32340
aI32172
aI32172
F11.0
I-1
tp6075
tp6076
Rp6077
ag1
(g9
g3
((lp6078
I32340
aI32167
aI32179
aI32179
F167.0
I-1
tp6079
tp6080
Rp6081
ag1
(g9
g3
((lp6082
I32340
aI32167
aI32167
F39.0
I-1
tp6083
tp6084
Rp6085
atp6086
tp6087
Rp6088
sI28247
g1
(g2
g3
(I28247
F32.1861076
F34.8187104
(lp6089
g1
(g9
g3
((lp6090
I28247
aI28248
aI28248
F2.0
I-1
tp6091
tp6092
Rp6093
ag1
(g9
g3
((lp6094
I28247
aI28248
aI28227
aI28227
F5.0
I-1
tp6095
tp6096
Rp6097
atp6098
tp6099
Rp6100
sI44632
g1
(g2
g3
(I44632
F32.0839092
F34.8006647
(lp6101
tp6102
tp6103
Rp6104
sI65113
g1
(g2
g3
(I65113
F32.1131019
F34.8339691
(lp6105
g1
(g9
g3
((lp6106
I65113
aI31039
aI65114
aI65114
F46.0
I-1
tp6107
tp6108
Rp6109
ag1
(g9
g3
((lp6110
I65113
aI31039
aI65114
aI65115
aI65115
F96.0
I-1
tp6111
tp6112
Rp6113
ag1
(g9
g3
((lp6114
I65113
aI31039
aI65114
aI65115
aI65116
aI65116
F120.0
I-1
tp6115
tp6116
Rp6117
ag1
(g9
g3
((lp6118
I65113
aI31039
aI31039
F20.0
I-1
tp6119
tp6120
Rp6121
atp6122
tp6123
Rp6124
sI65114
g1
(g2
g3
(I65114
F32.1129551
F34.8344412
(lp6125
g1
(g9
g3
((lp6126
I65114
aI31039
aI65113
aI65113
F46.0
I-1
tp6127
tp6128
Rp6129
ag1
(g9
g3
((lp6130
I65114
aI65115
aI65115
F50.0
I-1
tp6131
tp6132
Rp6133
ag1
(g9
g3
((lp6134
I65114
aI65115
aI65116
aI65116
F74.0
I-1
tp6135
tp6136
Rp6137
ag1
(g9
g3
((lp6138
I65114
aI31039
aI31039
F26.0
I-1
tp6139
tp6140
Rp6141
atp6142
tp6143
Rp6144
sI65115
g1
(g2
g3
(I65115
F32.1127837
F34.8349325
(lp6145
g1
(g9
g3
((lp6146
I65115
aI65114
aI31039
aI65113
aI65113
F96.0
I-1
tp6147
tp6148
Rp6149
ag1
(g9
g3
((lp6150
I65115
aI65114
aI65114
F50.0
I-1
tp6151
tp6152
Rp6153
ag1
(g9
g3
((lp6154
I65115
aI65116
aI65116
F24.0
I-1
tp6155
tp6156
Rp6157
ag1
(g9
g3
((lp6158
I65115
aI65114
aI31039
aI31039
F76.0
I-1
tp6159
tp6160
Rp6161
atp6162
tp6163
Rp6164
sI65116
g1
(g2
g3
(I65116
F32.1127057
F34.8351712
(lp6165
g1
(g9
g3
((lp6166
I65116
aI65115
aI65114
aI31039
aI65113
aI65113
F120.0
I-1
tp6167
tp6168
Rp6169
ag1
(g9
g3
((lp6170
I65116
aI65115
aI65114
aI65114
F74.0
I-1
tp6171
tp6172
Rp6173
ag1
(g9
g3
((lp6174
I65116
aI65115
aI65115
F24.0
I-1
tp6175
tp6176
Rp6177
ag1
(g9
g3
((lp6178
I65116
aI65115
aI65114
aI31039
aI31039
F100.0
I-1
tp6179
tp6180
Rp6181
atp6182
tp6183
Rp6184
sI18019
g1
(g2
g3
(I18019
F32.0586181
F34.7886219
(lp6185
g1
(g9
g3
((lp6186
I18019
aI38458
aI38448
aI38448
F244.0
I-1
tp6187
tp6188
Rp6189
ag1
(g9
g3
((lp6190
I18019
aI38458
aI38458
F170.0
I-1
tp6191
tp6192
Rp6193
ag1
(g9
g3
((lp6194
I18019
aI38458
aI38448
aI29110
aI29110
F284.0
I-1
tp6195
tp6196
Rp6197
atp6198
tp6199
Rp6200
sI18021
g1
(g2
g3
(I18021
F32.0586572
F34.7872532
(lp6201
g1
(g9
g3
((lp6202
I18021
aI38456
aI38456
F170.0
I-1
tp6203
tp6204
Rp6205
ag1
(g9
g3
((lp6206
I18021
aI38456
aI38558
aI38565
aI38561
aI38561
F360.0
I-1
tp6207
tp6208
Rp6209
ag1
(g9
g3
((lp6210
I18021
aI38456
aI38558
aI38558
F259.0
I-1
tp6211
tp6212
Rp6213
ag1
(g9
g3
((lp6214
I18021
aI38456
aI38558
aI38565
aI38565
F302.0
I-1
tp6215
tp6216
Rp6217
atp6218
tp6219
Rp6220
sI40550
g1
(g2
g3
(I40550
F32.1537032
F34.8474013
(lp6221
g1
(g9
g3
((lp6222
I40550
aI10237
aI10237
F2.0
I-1
tp6223
tp6224
Rp6225
ag1
(g9
g3
((lp6226
I40550
aI10237
aI40551
aI40551
F5.0
I-1
tp6227
tp6228
Rp6229
atp6230
tp6231
Rp6232
sI40551
g1
(g2
g3
(I40551
F32.153656
F34.847421
(lp6233
g1
(g9
g3
((lp6234
I40551
aI10237
aI10237
F3.0
I-1
tp6235
tp6236
Rp6237
ag1
(g9
g3
((lp6238
I40551
aI10237
aI40550
aI40550
F5.0
I-1
tp6239
tp6240
Rp6241
atp6242
tp6243
Rp6244
sI21782
g1
(g2
g3
(I21782
F32.0711197
F34.77242
(lp6245
tp6246
tp6247
Rp6248
sI16663
g1
(g2
g3
(I16663
F32.1067407
F34.8048178
(lp6249
g1
(g9
g3
((lp6250
I16663
aI16664
aI16664
F7.0
I-1
tp6251
tp6252
Rp6253
ag1
(g9
g3
((lp6254
I16663
aI16664
aI16665
aI16665
F12.0
I-1
tp6255
tp6256
Rp6257
ag1
(g9
g3
((lp6258
I16663
aI16664
aI16665
aI16666
aI16666
F17.0
I-1
tp6259
tp6260
Rp6261
atp6262
tp6263
Rp6264
sI71322
g1
(g2
g3
(I71322
F32.0777361
F34.8320348
(lp6265
tp6266
tp6267
Rp6268
sI38558
g1
(g2
g3
(I38558
F32.0563249
F34.787051
(lp6269
g1
(g9
g3
((lp6270
I38558
aI38456
aI38456
F89.0
I-1
tp6271
tp6272
Rp6273
ag1
(g9
g3
((lp6274
I38558
aI38565
aI38561
aI38561
F101.0
I-1
tp6275
tp6276
Rp6277
ag1
(g9
g3
((lp6278
I38558
aI38565
aI38565
F43.0
I-1
tp6279
tp6280
Rp6281
ag1
(g9
g3
((lp6282
I38558
aI38456
aI18021
aI18021
F259.0
I-1
tp6283
tp6284
Rp6285
atp6286
tp6287
Rp6288
sI38561
g1
(g2
g3
(I38561
F32.0554058
F34.7869316
(lp6289
g1
(g9
g3
((lp6290
I38561
aI38565
aI38558
aI38456
aI38456
F190.0
I-1
tp6291
tp6292
Rp6293
ag1
(g9
g3
((lp6294
I38561
aI38565
aI38565
F58.0
I-1
tp6295
tp6296
Rp6297
ag1
(g9
g3
((lp6298
I38561
aI38565
aI38558
aI38558
F101.0
I-1
tp6299
tp6300
Rp6301
ag1
(g9
g3
((lp6302
I38561
aI38565
aI38558
aI38456
aI18021
aI18021
F360.0
I-1
tp6303
tp6304
Rp6305
atp6306
tp6307
Rp6308
sI16034
g1
(g2
g3
(I16034
F32.0676852
F34.7822508
(lp6309
g1
(g9
g3
((lp6310
I16034
aI16050
aI16049
aI16048
aI16047
aI16046
aI16046
F107.0
I-1
tp6311
tp6312
Rp6313
ag1
(g9
g3
((lp6314
I16034
aI16050
aI16049
aI16048
aI16047
aI16047
F74.0
I-1
tp6315
tp6316
Rp6317
ag1
(g9
g3
((lp6318
I16034
aI16050
aI16049
aI16048
aI16048
F62.0
I-1
tp6319
tp6320
Rp6321
ag1
(g9
g3
((lp6322
I16034
aI16050
aI16049
aI16049
F41.0
I-1
tp6323
tp6324
Rp6325
ag1
(g9
g3
((lp6326
I16034
aI16050
aI16050
F2.0
I-1
tp6327
tp6328
Rp6329
atp6330
tp6331
Rp6332
sI38565
g1
(g2
g3
(I38565
F32.0559322
F34.787
(lp6333
g1
(g9
g3
((lp6334
I38565
aI38558
aI38456
aI38456
F132.0
I-1
tp6335
tp6336
Rp6337
ag1
(g9
g3
((lp6338
I38565
aI38561
aI38561
F58.0
I-1
tp6339
tp6340
Rp6341
ag1
(g9
g3
((lp6342
I38565
aI38558
aI38558
F43.0
I-1
tp6343
tp6344
Rp6345
ag1
(g9
g3
((lp6346
I38565
aI38558
aI38456
aI18021
aI18021
F302.0
I-1
tp6347
tp6348
Rp6349
atp6350
tp6351
Rp6352
sI16038
g1
(g2
g3
(I16038
F32.0670169
F34.7828648
(lp6353
g1
(g9
g3
((lp6354
I16038
aI16037
aI16039
aI16040
aI16041
aI16042
aI16048
aI16049
aI16050
aI16034
aI16034
F249.0
I-1
tp6355
tp6356
Rp6357
ag1
(g9
g3
((lp6358
I16038
aI16037
aI16037
F35.0
I-1
tp6359
tp6360
Rp6361
ag1
(g9
g3
((lp6362
I16038
aI16037
aI16039
aI16039
F63.0
I-1
tp6363
tp6364
Rp6365
ag1
(g9
g3
((lp6366
I16038
aI16037
aI16039
aI16040
aI16040
F97.0
I-1
tp6367
tp6368
Rp6369
ag1
(g9
g3
((lp6370
I16038
aI16037
aI16039
aI16040
aI16041
aI16041
F121.0
I-1
tp6371
tp6372
Rp6373
ag1
(g9
g3
((lp6374
I16038
aI16037
aI16039
aI16040
aI16041
aI16042
aI16042
F142.0
I-1
tp6375
tp6376
Rp6377
ag1
(g9
g3
((lp6378
I16038
aI16037
aI16039
aI16040
aI16041
aI16042
aI16043
aI16043
F181.0
I-1
tp6379
tp6380
Rp6381
ag1
(g9
g3
((lp6382
I16038
aI16037
aI16039
aI16040
aI16041
aI16042
aI16048
aI16047
aI16046
aI16046
F232.0
I-1
tp6383
tp6384
Rp6385
ag1
(g9
g3
((lp6386
I16038
aI16037
aI16039
aI16040
aI16041
aI16042
aI16048
aI16047
aI16047
F199.0
I-1
tp6387
tp6388
Rp6389
ag1
(g9
g3
((lp6390
I16038
aI16037
aI16039
aI16040
aI16041
aI16042
aI16048
aI16048
F187.0
I-1
tp6391
tp6392
Rp6393
ag1
(g9
g3
((lp6394
I16038
aI16037
aI16039
aI16040
aI16041
aI16042
aI16048
aI16049
aI16049
F208.0
I-1
tp6395
tp6396
Rp6397
ag1
(g9
g3
((lp6398
I16038
aI16037
aI16039
aI16040
aI16041
aI16042
aI16048
aI16049
aI16050
aI16050
F247.0
I-1
tp6399
tp6400
Rp6401
atp6402
tp6403
Rp6404
sI16039
g1
(g2
g3
(I16039
F32.0675918
F34.782777
(lp6405
g1
(g9
g3
((lp6406
I16039
aI16040
aI16041
aI16042
aI16048
aI16049
aI16050
aI16034
aI16034
F186.0
I-1
tp6407
tp6408
Rp6409
ag1
(g9
g3
((lp6410
I16039
aI16037
aI16037
F28.0
I-1
tp6411
tp6412
Rp6413
ag1
(g9
g3
((lp6414
I16039
aI16037
aI16038
aI16038
F63.0
I-1
tp6415
tp6416
Rp6417
ag1
(g9
g3
((lp6418
I16039
aI16040
aI16040
F34.0
I-1
tp6419
tp6420
Rp6421
ag1
(g9
g3
((lp6422
I16039
aI16040
aI16041
aI16041
F58.0
I-1
tp6423
tp6424
Rp6425
ag1
(g9
g3
((lp6426
I16039
aI16040
aI16041
aI16042
aI16042
F79.0
I-1
tp6427
tp6428
Rp6429
ag1
(g9
g3
((lp6430
I16039
aI16040
aI16041
aI16042
aI16043
aI16043
F118.0
I-1
tp6431
tp6432
Rp6433
ag1
(g9
g3
((lp6434
I16039
aI16040
aI16041
aI16042
aI16048
aI16047
aI16046
aI16046
F169.0
I-1
tp6435
tp6436
Rp6437
ag1
(g9
g3
((lp6438
I16039
aI16040
aI16041
aI16042
aI16048
aI16047
aI16047
F136.0
I-1
tp6439
tp6440
Rp6441
ag1
(g9
g3
((lp6442
I16039
aI16040
aI16041
aI16042
aI16048
aI16048
F124.0
I-1
tp6443
tp6444
Rp6445
ag1
(g9
g3
((lp6446
I16039
aI16040
aI16041
aI16042
aI16048
aI16049
aI16049
F145.0
I-1
tp6447
tp6448
Rp6449
ag1
(g9
g3
((lp6450
I16039
aI16040
aI16041
aI16042
aI16048
aI16049
aI16050
aI16050
F184.0
I-1
tp6451
tp6452
Rp6453
atp6454
tp6455
Rp6456
sI16040
g1
(g2
g3
(I16040
F32.0678973
F34.7827381
(lp6457
g1
(g9
g3
((lp6458
I16040
aI16041
aI16042
aI16048
aI16049
aI16050
aI16034
aI16034
F152.0
I-1
tp6459
tp6460
Rp6461
ag1
(g9
g3
((lp6462
I16040
aI16039
aI16037
aI16037
F62.0
I-1
tp6463
tp6464
Rp6465
ag1
(g9
g3
((lp6466
I16040
aI16039
aI16037
aI16038
aI16038
F97.0
I-1
tp6467
tp6468
Rp6469
ag1
(g9
g3
((lp6470
I16040
aI16039
aI16039
F34.0
I-1
tp6471
tp6472
Rp6473
ag1
(g9
g3
((lp6474
I16040
aI16041
aI16041
F24.0
I-1
tp6475
tp6476
Rp6477
ag1
(g9
g3
((lp6478
I16040
aI16041
aI16042
aI16042
F45.0
I-1
tp6479
tp6480
Rp6481
ag1
(g9
g3
((lp6482
I16040
aI16041
aI16042
aI16043
aI16043
F84.0
I-1
tp6483
tp6484
Rp6485
ag1
(g9
g3
((lp6486
I16040
aI16041
aI16042
aI16048
aI16047
aI16046
aI16046
F135.0
I-1
tp6487
tp6488
Rp6489
ag1
(g9
g3
((lp6490
I16040
aI16041
aI16042
aI16048
aI16047
aI16047
F102.0
I-1
tp6491
tp6492
Rp6493
ag1
(g9
g3
((lp6494
I16040
aI16041
aI16042
aI16048
aI16048
F90.0
I-1
tp6495
tp6496
Rp6497
ag1
(g9
g3
((lp6498
I16040
aI16041
aI16042
aI16048
aI16049
aI16049
F111.0
I-1
tp6499
tp6500
Rp6501
ag1
(g9
g3
((lp6502
I16040
aI16041
aI16042
aI16048
aI16049
aI16050
aI16050
F150.0
I-1
tp6503
tp6504
Rp6505
atp6506
tp6507
Rp6508
sI16041
g1
(g2
g3
(I16041
F32.0681127
F34.7826934
(lp6509
g1
(g9
g3
((lp6510
I16041
aI16042
aI16048
aI16049
aI16050
aI16034
aI16034
F128.0
I-1
tp6511
tp6512
Rp6513
ag1
(g9
g3
((lp6514
I16041
aI16040
aI16039
aI16037
aI16037
F86.0
I-1
tp6515
tp6516
Rp6517
ag1
(g9
g3
((lp6518
I16041
aI16040
aI16039
aI16037
aI16038
aI16038
F121.0
I-1
tp6519
tp6520
Rp6521
ag1
(g9
g3
((lp6522
I16041
aI16040
aI16039
aI16039
F58.0
I-1
tp6523
tp6524
Rp6525
ag1
(g9
g3
((lp6526
I16041
aI16040
aI16040
F24.0
I-1
tp6527
tp6528
Rp6529
ag1
(g9
g3
((lp6530
I16041
aI16042
aI16042
F21.0
I-1
tp6531
tp6532
Rp6533
ag1
(g9
g3
((lp6534
I16041
aI16042
aI16043
aI16043
F60.0
I-1
tp6535
tp6536
Rp6537
ag1
(g9
g3
((lp6538
I16041
aI16042
aI16048
aI16047
aI16046
aI16046
F111.0
I-1
tp6539
tp6540
Rp6541
ag1
(g9
g3
((lp6542
I16041
aI16042
aI16048
aI16047
aI16047
F78.0
I-1
tp6543
tp6544
Rp6545
ag1
(g9
g3
((lp6546
I16041
aI16042
aI16048
aI16048
F66.0
I-1
tp6547
tp6548
Rp6549
ag1
(g9
g3
((lp6550
I16041
aI16042
aI16048
aI16049
aI16049
F87.0
I-1
tp6551
tp6552
Rp6553
ag1
(g9
g3
((lp6554
I16041
aI16042
aI16048
aI16049
aI16050
aI16050
F126.0
I-1
tp6555
tp6556
Rp6557
atp6558
tp6559
Rp6560
sI16042
g1
(g2
g3
(I16042
F32.0683036
F34.7826538
(lp6561
g1
(g9
g3
((lp6562
I16042
aI16048
aI16049
aI16050
aI16034
aI16034
F107.0
I-1
tp6563
tp6564
Rp6565
ag1
(g9
g3
((lp6566
I16042
aI16041
aI16040
aI16039
aI16037
aI16037
F107.0
I-1
tp6567
tp6568
Rp6569
ag1
(g9
g3
((lp6570
I16042
aI16041
aI16040
aI16039
aI16037
aI16038
aI16038
F142.0
I-1
tp6571
tp6572
Rp6573
ag1
(g9
g3
((lp6574
I16042
aI16041
aI16040
aI16039
aI16039
F79.0
I-1
tp6575
tp6576
Rp6577
ag1
(g9
g3
((lp6578
I16042
aI16041
aI16040
aI16040
F45.0
I-1
tp6579
tp6580
Rp6581
ag1
(g9
g3
((lp6582
I16042
aI16041
aI16041
F21.0
I-1
tp6583
tp6584
Rp6585
ag1
(g9
g3
((lp6586
I16042
aI16043
aI16043
F39.0
I-1
tp6587
tp6588
Rp6589
ag1
(g9
g3
((lp6590
I16042
aI16048
aI16047
aI16046
aI16046
F90.0
I-1
tp6591
tp6592
Rp6593
ag1
(g9
g3
((lp6594
I16042
aI16048
aI16047
aI16047
F57.0
I-1
tp6595
tp6596
Rp6597
ag1
(g9
g3
((lp6598
I16042
aI16048
aI16048
F45.0
I-1
tp6599
tp6600
Rp6601
ag1
(g9
g3
((lp6602
I16042
aI16048
aI16049
aI16049
F66.0
I-1
tp6603
tp6604
Rp6605
ag1
(g9
g3
((lp6606
I16042
aI16048
aI16049
aI16050
aI16050
F105.0
I-1
tp6607
tp6608
Rp6609
atp6610
tp6611
Rp6612
sI16043
g1
(g2
g3
(I16043
F32.0686577
F34.7825804
(lp6613
g1
(g9
g3
((lp6614
I16043
aI16042
aI16048
aI16049
aI16050
aI16034
aI16034
F146.0
I-1
tp6615
tp6616
Rp6617
ag1
(g9
g3
((lp6618
I16043
aI16042
aI16041
aI16040
aI16039
aI16037
aI16037
F146.0
I-1
tp6619
tp6620
Rp6621
ag1
(g9
g3
((lp6622
I16043
aI16042
aI16041
aI16040
aI16039
aI16037
aI16038
aI16038
F181.0
I-1
tp6623
tp6624
Rp6625
ag1
(g9
g3
((lp6626
I16043
aI16042
aI16041
aI16040
aI16039
aI16039
F118.0
I-1
tp6627
tp6628
Rp6629
ag1
(g9
g3
((lp6630
I16043
aI16042
aI16041
aI16040
aI16040
F84.0
I-1
tp6631
tp6632
Rp6633
ag1
(g9
g3
((lp6634
I16043
aI16042
aI16041
aI16041
F60.0
I-1
tp6635
tp6636
Rp6637
ag1
(g9
g3
((lp6638
I16043
aI16042
aI16042
F39.0
I-1
tp6639
tp6640
Rp6641
ag1
(g9
g3
((lp6642
I16043
aI16042
aI16048
aI16047
aI16046
aI16046
F129.0
I-1
tp6643
tp6644
Rp6645
ag1
(g9
g3
((lp6646
I16043
aI16042
aI16048
aI16047
aI16047
F96.0
I-1
tp6647
tp6648
Rp6649
ag1
(g9
g3
((lp6650
I16043
aI16042
aI16048
aI16048
F84.0
I-1
tp6651
tp6652
Rp6653
ag1
(g9
g3
((lp6654
I16043
aI16042
aI16048
aI16049
aI16049
F105.0
I-1
tp6655
tp6656
Rp6657
ag1
(g9
g3
((lp6658
I16043
aI16042
aI16048
aI16049
aI16050
aI16050
F144.0
I-1
tp6659
tp6660
Rp6661
atp6662
tp6663
Rp6664
sI16046
g1
(g2
g3
(I16046
F32.068674
F34.782194
(lp6665
g1
(g9
g3
((lp6666
I16046
aI16047
aI16048
aI16049
aI16050
aI16034
aI16034
F107.0
I-1
tp6667
tp6668
Rp6669
ag1
(g9
g3
((lp6670
I16046
aI16047
aI16047
F33.0
I-1
tp6671
tp6672
Rp6673
ag1
(g9
g3
((lp6674
I16046
aI16047
aI16048
aI16048
F45.0
I-1
tp6675
tp6676
Rp6677
ag1
(g9
g3
((lp6678
I16046
aI16047
aI16048
aI16049
aI16049
F66.0
I-1
tp6679
tp6680
Rp6681
ag1
(g9
g3
((lp6682
I16046
aI16047
aI16048
aI16049
aI16050
aI16050
F105.0
I-1
tp6683
tp6684
Rp6685
atp6686
tp6687
Rp6688
sI16047
g1
(g2
g3
(I16047
F32.0683733
F34.7821581
(lp6689
g1
(g9
g3
((lp6690
I16047
aI16048
aI16049
aI16050
aI16034
aI16034
F74.0
I-1
tp6691
tp6692
Rp6693
ag1
(g9
g3
((lp6694
I16047
aI16046
aI16046
F33.0
I-1
tp6695
tp6696
Rp6697
ag1
(g9
g3
((lp6698
I16047
aI16048
aI16048
F12.0
I-1
tp6699
tp6700
Rp6701
ag1
(g9
g3
((lp6702
I16047
aI16048
aI16049
aI16049
F33.0
I-1
tp6703
tp6704
Rp6705
ag1
(g9
g3
((lp6706
I16047
aI16048
aI16049
aI16050
aI16050
F72.0
I-1
tp6707
tp6708
Rp6709
atp6710
tp6711
Rp6712
sI16048
g1
(g2
g3
(I16048
F32.0682578
F34.7821763
(lp6713
g1
(g9
g3
((lp6714
I16048
aI16049
aI16050
aI16034
aI16034
F62.0
I-1
tp6715
tp6716
Rp6717
ag1
(g9
g3
((lp6718
I16048
aI16047
aI16046
aI16046
F45.0
I-1
tp6719
tp6720
Rp6721
ag1
(g9
g3
((lp6722
I16048
aI16047
aI16047
F12.0
I-1
tp6723
tp6724
Rp6725
ag1
(g9
g3
((lp6726
I16048
aI16049
aI16049
F21.0
I-1
tp6727
tp6728
Rp6729
ag1
(g9
g3
((lp6730
I16048
aI16049
aI16050
aI16050
F60.0
I-1
tp6731
tp6732
Rp6733
atp6734
tp6735
Rp6736
sI16049
g1
(g2
g3
(I16049
F32.0680672
F34.7822064
(lp6737
g1
(g9
g3
((lp6738
I16049
aI16050
aI16034
aI16034
F41.0
I-1
tp6739
tp6740
Rp6741
ag1
(g9
g3
((lp6742
I16049
aI16048
aI16047
aI16046
aI16046
F66.0
I-1
tp6743
tp6744
Rp6745
ag1
(g9
g3
((lp6746
I16049
aI16048
aI16047
aI16047
F33.0
I-1
tp6747
tp6748
Rp6749
ag1
(g9
g3
((lp6750
I16049
aI16048
aI16048
F21.0
I-1
tp6751
tp6752
Rp6753
ag1
(g9
g3
((lp6754
I16049
aI16050
aI16050
F39.0
I-1
tp6755
tp6756
Rp6757
atp6758
tp6759
Rp6760
sI16050
g1
(g2
g3
(I16050
F32.0677098
F34.7822479
(lp6761
g1
(g9
g3
((lp6762
I16050
aI16034
aI16034
F2.0
I-1
tp6763
tp6764
Rp6765
ag1
(g9
g3
((lp6766
I16050
aI16049
aI16048
aI16047
aI16046
aI16046
F105.0
I-1
tp6767
tp6768
Rp6769
ag1
(g9
g3
((lp6770
I16050
aI16049
aI16048
aI16047
aI16047
F72.0
I-1
tp6771
tp6772
Rp6773
ag1
(g9
g3
((lp6774
I16050
aI16049
aI16048
aI16048
F60.0
I-1
tp6775
tp6776
Rp6777
ag1
(g9
g3
((lp6778
I16050
aI16049
aI16049
F39.0
I-1
tp6779
tp6780
Rp6781
atp6782
tp6783
Rp6784
sI46781
g1
(g2
g3
(I46781
F32.0120892
F34.7664878
(lp6785
tp6786
tp6787
Rp6788
sI3779
g1
(g2
g3
(I3779
F32.1473844
F34.8038514
(lp6789
g1
(g9
g3
((lp6790
I3779
aI3780
aI3781
aI3811
aI3810
aI3809
aI3809
F91.0
I-1
tp6791
tp6792
Rp6793
ag1
(g9
g3
((lp6794
I3779
aI3780
aI3781
aI3811
aI3810
aI3810
F84.0
I-1
tp6795
tp6796
Rp6797
ag1
(g9
g3
((lp6798
I3779
aI3780
aI3781
aI3812
aI3812
F79.0
I-1
tp6799
tp6800
Rp6801
ag1
(g9
g3
((lp6802
I3779
aI3780
aI3781
aI3781
F74.0
I-1
tp6803
tp6804
Rp6805
ag1
(g9
g3
((lp6806
I3779
aI3780
aI3781
aI3812
aI3813
aI3814
aI3814
F87.0
I-1
tp6807
tp6808
Rp6809
ag1
(g9
g3
((lp6810
I3779
aI3780
aI3781
aI3812
aI3813
aI3814
aI3815
aI3815
F92.0
I-1
tp6811
tp6812
Rp6813
ag1
(g9
g3
((lp6814
I3779
aI3780
aI3781
aI3811
aI3811
F79.0
I-1
tp6815
tp6816
Rp6817
ag1
(g9
g3
((lp6818
I3779
aI3780
aI3780
F34.0
I-1
tp6819
tp6820
Rp6821
ag1
(g9
g3
((lp6822
I3779
aI3780
aI3781
aI3812
aI3813
aI3813
F84.0
I-1
tp6823
tp6824
Rp6825
atp6826
tp6827
Rp6828
sI3780
g1
(g2
g3
(I3780
F32.1472945
F34.8041981
(lp6829
g1
(g9
g3
((lp6830
I3780
aI3781
aI3811
aI3810
aI3809
aI3809
F57.0
I-1
tp6831
tp6832
Rp6833
ag1
(g9
g3
((lp6834
I3780
aI3781
aI3811
aI3810
aI3810
F50.0
I-1
tp6835
tp6836
Rp6837
ag1
(g9
g3
((lp6838
I3780
aI3779
aI3779
F34.0
I-1
tp6839
tp6840
Rp6841
ag1
(g9
g3
((lp6842
I3780
aI3781
aI3812
aI3812
F45.0
I-1
tp6843
tp6844
Rp6845
ag1
(g9
g3
((lp6846
I3780
aI3781
aI3781
F40.0
I-1
tp6847
tp6848
Rp6849
ag1
(g9
g3
((lp6850
I3780
aI3781
aI3812
aI3813
aI3814
aI3814
F53.0
I-1
tp6851
tp6852
Rp6853
ag1
(g9
g3
((lp6854
I3780
aI3781
aI3812
aI3813
aI3814
aI3815
aI3815
F58.0
I-1
tp6855
tp6856
Rp6857
ag1
(g9
g3
((lp6858
I3780
aI3781
aI3811
aI3811
F45.0
I-1
tp6859
tp6860
Rp6861
ag1
(g9
g3
((lp6862
I3780
aI3781
aI3812
aI3813
aI3813
F50.0
I-1
tp6863
tp6864
Rp6865
atp6866
tp6867
Rp6868
sI3781
g1
(g2
g3
(I3781
F32.1471866
F34.8046044
(lp6869
g1
(g9
g3
((lp6870
I3781
aI3811
aI3810
aI3809
aI3809
F17.0
I-1
tp6871
tp6872
Rp6873
ag1
(g9
g3
((lp6874
I3781
aI3811
aI3810
aI3810
F10.0
I-1
tp6875
tp6876
Rp6877
ag1
(g9
g3
((lp6878
I3781
aI3811
aI3811
F5.0
I-1
tp6879
tp6880
Rp6881
ag1
(g9
g3
((lp6882
I3781
aI3812
aI3812
F5.0
I-1
tp6883
tp6884
Rp6885
ag1
(g9
g3
((lp6886
I3781
aI3812
aI3813
aI3814
aI3814
F13.0
I-1
tp6887
tp6888
Rp6889
ag1
(g9
g3
((lp6890
I3781
aI3812
aI3813
aI3814
aI3815
aI3815
F18.0
I-1
tp6891
tp6892
Rp6893
ag1
(g9
g3
((lp6894
I3781
aI3780
aI3779
aI3779
F74.0
I-1
tp6895
tp6896
Rp6897
ag1
(g9
g3
((lp6898
I3781
aI3780
aI3780
F40.0
I-1
tp6899
tp6900
Rp6901
ag1
(g9
g3
((lp6902
I3781
aI3812
aI3813
aI3813
F10.0
I-1
tp6903
tp6904
Rp6905
atp6906
tp6907
Rp6908
sI79566
g1
(g2
g3
(I79566
F32.0112046
F34.7927577
(lp6909
g1
(g9
g3
((lp6910
I79566
aI70748
aI70748
F4.0
I-1
tp6911
tp6912
Rp6913
atp6914
tp6915
Rp6916
sI71391
g1
(g2
g3
(I71391
F32.0465802
F34.7892491
(lp6917
g1
(g9
g3
((lp6918
I71391
aI38671
aI38671
F13.0
I-1
tp6919
tp6920
Rp6921
ag1
(g9
g3
((lp6922
I71391
aI38671
aI38670
aI38670
F53.0
I-1
tp6923
tp6924
Rp6925
atp6926
tp6927
Rp6928
sI3809
g1
(g2
g3
(I3809
F32.1472976
F34.8047381
(lp6929
g1
(g9
g3
((lp6930
I3809
aI3810
aI3810
F7.0
I-1
tp6931
tp6932
Rp6933
ag1
(g9
g3
((lp6934
I3809
aI3810
aI3811
aI3811
F12.0
I-1
tp6935
tp6936
Rp6937
ag1
(g9
g3
((lp6938
I3809
aI3810
aI3811
aI3781
aI3812
aI3812
F22.0
I-1
tp6939
tp6940
Rp6941
ag1
(g9
g3
((lp6942
I3809
aI3810
aI3811
aI3781
aI3781
F17.0
I-1
tp6943
tp6944
Rp6945
ag1
(g9
g3
((lp6946
I3809
aI3810
aI3811
aI3781
aI3812
aI3813
aI3814
aI3814
F30.0
I-1
tp6947
tp6948
Rp6949
ag1
(g9
g3
((lp6950
I3809
aI3810
aI3811
aI3781
aI3812
aI3813
aI3814
aI3815
aI3815
F35.0
I-1
tp6951
tp6952
Rp6953
ag1
(g9
g3
((lp6954
I3809
aI3810
aI3811
aI3781
aI3780
aI3779
aI3779
F91.0
I-1
tp6955
tp6956
Rp6957
ag1
(g9
g3
((lp6958
I3809
aI3810
aI3811
aI3781
aI3780
aI3780
F57.0
I-1
tp6959
tp6960
Rp6961
ag1
(g9
g3
((lp6962
I3809
aI3810
aI3811
aI3781
aI3812
aI3813
aI3813
F27.0
I-1
tp6963
tp6964
Rp6965
atp6966
tp6967
Rp6968
sI3810
g1
(g2
g3
(I3810
F32.1472686
F34.8046654
(lp6969
g1
(g9
g3
((lp6970
I3810
aI3809
aI3809
F7.0
I-1
tp6971
tp6972
Rp6973
ag1
(g9
g3
((lp6974
I3810
aI3811
aI3811
F5.0
I-1
tp6975
tp6976
Rp6977
ag1
(g9
g3
((lp6978
I3810
aI3811
aI3781
aI3812
aI3812
F15.0
I-1
tp6979
tp6980
Rp6981
ag1
(g9
g3
((lp6982
I3810
aI3811
aI3781
aI3781
F10.0
I-1
tp6983
tp6984
Rp6985
ag1
(g9
g3
((lp6986
I3810
aI3811
aI3781
aI3812
aI3813
aI3814
aI3814
F23.0
I-1
tp6987
tp6988
Rp6989
ag1
(g9
g3
((lp6990
I3810
aI3811
aI3781
aI3812
aI3813
aI3814
aI3815
aI3815
F28.0
I-1
tp6991
tp6992
Rp6993
ag1
(g9
g3
((lp6994
I3810
aI3811
aI3781
aI3780
aI3779
aI3779
F84.0
I-1
tp6995
tp6996
Rp6997
ag1
(g9
g3
((lp6998
I3810
aI3811
aI3781
aI3780
aI3780
F50.0
I-1
tp6999
tp7000
Rp7001
ag1
(g9
g3
((lp7002
I3810
aI3811
aI3781
aI3812
aI3813
aI3813
F20.0
I-1
tp7003
tp7004
Rp7005
atp7006
tp7007
Rp7008
sI14051
g1
(g2
g3
(I14051
F31.9534017
F34.8070414
(lp7009
g1
(g9
g3
((lp7010
I14051
aI13810
aI14220
aI13808
aI13808
F75.0
I-1
tp7011
tp7012
Rp7013
ag1
(g9
g3
((lp7014
I14051
aI13810
aI14220
aI13808
aI13809
aI13809
F127.0
I-1
tp7015
tp7016
Rp7017
ag1
(g9
g3
((lp7018
I14051
aI13810
aI13810
F7.0
I-1
tp7019
tp7020
Rp7021
ag1
(g9
g3
((lp7022
I14051
aI13810
aI14220
aI14220
F58.0
I-1
tp7023
tp7024
Rp7025
atp7026
tp7027
Rp7028
sI3812
g1
(g2
g3
(I3812
F32.1471355
F34.8046012
(lp7029
g1
(g9
g3
((lp7030
I3812
aI3781
aI3811
aI3810
aI3809
aI3809
F22.0
I-1
tp7031
tp7032
Rp7033
ag1
(g9
g3
((lp7034
I3812
aI3781
aI3811
aI3810
aI3810
F15.0
I-1
tp7035
tp7036
Rp7037
ag1
(g9
g3
((lp7038
I3812
aI3781
aI3811
aI3811
F10.0
I-1
tp7039
tp7040
Rp7041
ag1
(g9
g3
((lp7042
I3812
aI3781
aI3781
F5.0
I-1
tp7043
tp7044
Rp7045
ag1
(g9
g3
((lp7046
I3812
aI3813
aI3814
aI3814
F8.0
I-1
tp7047
tp7048
Rp7049
ag1
(g9
g3
((lp7050
I3812
aI3813
aI3814
aI3815
aI3815
F13.0
I-1
tp7051
tp7052
Rp7053
ag1
(g9
g3
((lp7054
I3812
aI3781
aI3780
aI3779
aI3779
F79.0
I-1
tp7055
tp7056
Rp7057
ag1
(g9
g3
((lp7058
I3812
aI3781
aI3780
aI3780
F45.0
I-1
tp7059
tp7060
Rp7061
ag1
(g9
g3
((lp7062
I3812
aI3813
aI3813
F5.0
I-1
tp7063
tp7064
Rp7065
atp7066
tp7067
Rp7068
sI3813
g1
(g2
g3
(I3813
F32.1470866
F34.8046189
(lp7069
g1
(g9
g3
((lp7070
I3813
aI3812
aI3781
aI3811
aI3810
aI3809
aI3809
F27.0
I-1
tp7071
tp7072
Rp7073
ag1
(g9
g3
((lp7074
I3813
aI3812
aI3781
aI3811
aI3810
aI3810
F20.0
I-1
tp7075
tp7076
Rp7077
ag1
(g9
g3
((lp7078
I3813
aI3812
aI3781
aI3811
aI3811
F15.0
I-1
tp7079
tp7080
Rp7081
ag1
(g9
g3
((lp7082
I3813
aI3812
aI3812
F5.0
I-1
tp7083
tp7084
Rp7085
ag1
(g9
g3
((lp7086
I3813
aI3812
aI3781
aI3781
F10.0
I-1
tp7087
tp7088
Rp7089
ag1
(g9
g3
((lp7090
I3813
aI3814
aI3814
F3.0
I-1
tp7091
tp7092
Rp7093
ag1
(g9
g3
((lp7094
I3813
aI3814
aI3815
aI3815
F8.0
I-1
tp7095
tp7096
Rp7097
ag1
(g9
g3
((lp7098
I3813
aI3812
aI3781
aI3780
aI3779
aI3779
F84.0
I-1
tp7099
tp7100
Rp7101
ag1
(g9
g3
((lp7102
I3813
aI3812
aI3781
aI3780
aI3780
F50.0
I-1
tp7103
tp7104
Rp7105
atp7106
tp7107
Rp7108
sI3814
g1
(g2
g3
(I3814
F32.1470591
F34.8046403
(lp7109
g1
(g9
g3
((lp7110
I3814
aI3813
aI3812
aI3781
aI3811
aI3810
aI3809
aI3809
F30.0
I-1
tp7111
tp7112
Rp7113
ag1
(g9
g3
((lp7114
I3814
aI3813
aI3812
aI3781
aI3811
aI3810
aI3810
F23.0
I-1
tp7115
tp7116
Rp7117
ag1
(g9
g3
((lp7118
I3814
aI3813
aI3812
aI3781
aI3811
aI3811
F18.0
I-1
tp7119
tp7120
Rp7121
ag1
(g9
g3
((lp7122
I3814
aI3813
aI3812
aI3812
F8.0
I-1
tp7123
tp7124
Rp7125
ag1
(g9
g3
((lp7126
I3814
aI3813
aI3812
aI3781
aI3781
F13.0
I-1
tp7127
tp7128
Rp7129
ag1
(g9
g3
((lp7130
I3814
aI3815
aI3815
F5.0
I-1
tp7131
tp7132
Rp7133
ag1
(g9
g3
((lp7134
I3814
aI3813
aI3812
aI3781
aI3780
aI3779
aI3779
F87.0
I-1
tp7135
tp7136
Rp7137
ag1
(g9
g3
((lp7138
I3814
aI3813
aI3812
aI3781
aI3780
aI3780
F53.0
I-1
tp7139
tp7140
Rp7141
ag1
(g9
g3
((lp7142
I3814
aI3813
aI3813
F3.0
I-1
tp7143
tp7144
Rp7145
atp7146
tp7147
Rp7148
sI44775
g1
(g2
g3
(I44775
F32.0635352
F34.8483502
(lp7149
tp7150
tp7151
Rp7152
sI3819
g1
(g2
g3
(I3819
F32.1470794
F34.8049242
(lp7153
tp7154
tp7155
Rp7156
sI18160
g1
(g2
g3
(I18160
F32.0538777
F34.780016
(lp7157
g1
(g9
g3
((lp7158
I18160
aI79166
aI79166
F4.0
I-1
tp7159
tp7160
Rp7161
atp7162
tp7163
Rp7164
sI50939
g1
(g2
g3
(I50939
F32.0715946
F34.8457045
(lp7165
g1
(g9
g3
((lp7166
I50939
aI49237
aI49237
F5.0
I-1
tp7167
tp7168
Rp7169
atp7170
tp7171
Rp7172
sI44807
g1
(g2
g3
(I44807
F32.0639632
F34.8610097
(lp7173
tp7174
tp7175
Rp7176
sI46859
g1
(g2
g3
(I46859
F32.0102092
F34.7657067
(lp7177
g1
(g9
g3
((lp7178
I46859
aI47489
aI47489
F57.0
I-1
tp7179
tp7180
Rp7181
atp7182
tp7183
Rp7184
sI29314
g1
(g2
g3
(I29314
F31.9037523
F34.8124418
(lp7185
g1
(g9
g3
((lp7186
I29314
aI29313
aI29313
F20.0
I-1
tp7187
tp7188
Rp7189
ag1
(g9
g3
((lp7190
I29314
aI29315
aI29315
F14.0
I-1
tp7191
tp7192
Rp7193
ag1
(g9
g3
((lp7194
I29314
aI29315
aI29316
aI29316
F25.0
I-1
tp7195
tp7196
Rp7197
atp7198
tp7199
Rp7200
sI38670
g1
(g2
g3
(I38670
F32.0464468
F34.7896689
(lp7201
g1
(g9
g3
((lp7202
I38670
aI38671
aI71391
aI71391
F53.0
I-1
tp7203
tp7204
Rp7205
ag1
(g9
g3
((lp7206
I38670
aI38671
aI38671
F40.0
I-1
tp7207
tp7208
Rp7209
atp7210
tp7211
Rp7212
sI38671
g1
(g2
g3
(I38671
F32.0464556
F34.7892436
(lp7213
g1
(g9
g3
((lp7214
I38671
aI71391
aI71391
F13.0
I-1
tp7215
tp7216
Rp7217
ag1
(g9
g3
((lp7218
I38671
aI38670
aI38670
F40.0
I-1
tp7219
tp7220
Rp7221
atp7222
tp7223
Rp7224
sI29315
g1
(g2
g3
(I29315
F31.9038197
F34.8125723
(lp7225
g1
(g9
g3
((lp7226
I29315
aI29314
aI29313
aI29313
F34.0
I-1
tp7227
tp7228
Rp7229
ag1
(g9
g3
((lp7230
I29315
aI29314
aI29314
F14.0
I-1
tp7231
tp7232
Rp7233
ag1
(g9
g3
((lp7234
I29315
aI29316
aI29316
F11.0
I-1
tp7235
tp7236
Rp7237
atp7238
tp7239
Rp7240
sI46868
g1
(g2
g3
(I46868
F32.0093634
F34.7662186
(lp7241
g1
(g9
g3
((lp7242
I46868
aI47489
aI47489
F88.0
I-1
tp7243
tp7244
Rp7245
ag1
(g9
g3
((lp7246
I46868
aI47489
aI46859
aI46859
F145.0
I-1
tp7247
tp7248
Rp7249
atp7250
tp7251
Rp7252
sI29316
g1
(g2
g3
(I29316
F31.9038735
F34.8126734
(lp7253
g1
(g9
g3
((lp7254
I29316
aI29315
aI29314
aI29313
aI29313
F45.0
I-1
tp7255
tp7256
Rp7257
ag1
(g9
g3
((lp7258
I29316
aI29315
aI29314
aI29314
F25.0
I-1
tp7259
tp7260
Rp7261
ag1
(g9
g3
((lp7262
I29316
aI29315
aI29315
F11.0
I-1
tp7263
tp7264
Rp7265
atp7266
tp7267
Rp7268
sI16154
g1
(g2
g3
(I16154
F32.01299
F34.7834096
(lp7269
tp7270
tp7271
Rp7272
sI3867
g1
(g2
g3
(I3867
F32.0704664
F34.8063365
(lp7273
g1
(g9
g3
((lp7274
I3867
aI5212
aI3877
aI2712
aI2712
F324.0
I-1
tp7275
tp7276
Rp7277
ag1
(g9
g3
((lp7278
I3867
aI5212
aI5212
F104.0
I-1
tp7279
tp7280
Rp7281
ag1
(g9
g3
((lp7282
I3867
aI5212
aI3877
aI3877
F195.0
I-1
tp7283
tp7284
Rp7285
atp7286
tp7287
Rp7288
sI17029
g1
(g2
g3
(I17029
F32.0917991
F34.7944622
(lp7289
g1
(g9
g3
((lp7290
I17029
aI17030
aI17026
aI17026
F95.0
I-1
tp7291
tp7292
Rp7293
ag1
(g9
g3
((lp7294
I17029
aI17030
aI17030
F67.0
I-1
tp7295
tp7296
Rp7297
ag1
(g9
g3
((lp7298
I17029
aI17030
aI17026
aI677
aI677
F221.0
I-1
tp7299
tp7300
Rp7301
atp7302
tp7303
Rp7304
sI3877
g1
(g2
g3
(I3877
F32.0702531
F34.8042745
(lp7305
g1
(g9
g3
((lp7306
I3877
aI2712
aI2712
F129.0
I-1
tp7307
tp7308
Rp7309
ag1
(g9
g3
((lp7310
I3877
aI5212
aI3867
aI3867
F195.0
I-1
tp7311
tp7312
Rp7313
ag1
(g9
g3
((lp7314
I3877
aI5212
aI5212
F91.0
I-1
tp7315
tp7316
Rp7317
atp7318
tp7319
Rp7320
sI12076
g1
(g2
g3
(I12076
F31.8913879
F34.7718738
(lp7321
g1
(g9
g3
((lp7322
I12076
aI12077
aI12077
F9.0
I-1
tp7323
tp7324
Rp7325
ag1
(g9
g3
((lp7326
I12076
aI12077
aI12078
aI12078
F19.0
I-1
tp7327
tp7328
Rp7329
atp7330
tp7331
Rp7332
sI12077
g1
(g2
g3
(I12077
F31.8912993
F34.7718697
(lp7333
g1
(g9
g3
((lp7334
I12077
aI12076
aI12076
F9.0
I-1
tp7335
tp7336
Rp7337
ag1
(g9
g3
((lp7338
I12077
aI12078
aI12078
F10.0
I-1
tp7339
tp7340
Rp7341
atp7342
tp7343
Rp7344
sI12078
g1
(g2
g3
(I12078
F31.8912085
F34.7719023
(lp7345
g1
(g9
g3
((lp7346
I12078
aI12077
aI12076
aI12076
F19.0
I-1
tp7347
tp7348
Rp7349
ag1
(g9
g3
((lp7350
I12078
aI12077
aI12077
F10.0
I-1
tp7351
tp7352
Rp7353
atp7354
tp7355
Rp7356
sI18228
g1
(g2
g3
(I18228
F32.0960183
F34.7904507
(lp7357
g1
(g9
g3
((lp7358
I18228
aI415
aI18229
aI18230
aI16967
aI16967
F11.0
I-1
tp7359
tp7360
Rp7361
ag1
(g9
g3
((lp7362
I18228
aI415
aI18229
aI18229
F5.0
I-1
tp7363
tp7364
Rp7365
ag1
(g9
g3
((lp7366
I18228
aI415
aI18229
aI18230
aI18230
F8.0
I-1
tp7367
tp7368
Rp7369
ag1
(g9
g3
((lp7370
I18228
aI415
aI415
F3.0
I-1
tp7371
tp7372
Rp7373
atp7374
tp7375
Rp7376
sI18229
g1
(g2
g3
(I18229
F32.096048
F34.7905081
(lp7377
g1
(g9
g3
((lp7378
I18229
aI18230
aI16967
aI16967
F6.0
I-1
tp7379
tp7380
Rp7381
ag1
(g9
g3
((lp7382
I18229
aI415
aI18228
aI18228
F5.0
I-1
tp7383
tp7384
Rp7385
ag1
(g9
g3
((lp7386
I18229
aI18230
aI18230
F3.0
I-1
tp7387
tp7388
Rp7389
ag1
(g9
g3
((lp7390
I18229
aI415
aI415
F2.0
I-1
tp7391
tp7392
Rp7393
atp7394
tp7395
Rp7396
sI18230
g1
(g2
g3
(I18230
F32.0960761
F34.7905281
(lp7397
g1
(g9
g3
((lp7398
I18230
aI18229
aI415
aI415
F5.0
I-1
tp7399
tp7400
Rp7401
ag1
(g9
g3
((lp7402
I18230
aI18229
aI415
aI18228
aI18228
F8.0
I-1
tp7403
tp7404
Rp7405
ag1
(g9
g3
((lp7406
I18230
aI18229
aI18229
F3.0
I-1
tp7407
tp7408
Rp7409
ag1
(g9
g3
((lp7410
I18230
aI16967
aI16967
F3.0
I-1
tp7411
tp7412
Rp7413
atp7414
tp7415
Rp7416
sI65347
g1
(g2
g3
(I65347
F31.9724336
F34.8172865
(lp7417
tp7418
tp7419
Rp7420
sI81734
g1
(g2
g3
(I81734
F32.0618636
F34.8152849
(lp7421
tp7422
tp7423
Rp7424
sI71495
g1
(g2
g3
(I71495
F32.0771512
F34.8288831
(lp7425
tp7426
tp7427
Rp7428
sI36681
g1
(g2
g3
(I36681
F31.8839138
F34.8256551
(lp7429
g1
(g9
g3
((lp7430
I36681
aI36705
aI36704
aI36704
F141.0
I-1
tp7431
tp7432
Rp7433
ag1
(g9
g3
((lp7434
I36681
aI36705
aI36704
aI36708
aI36708
F222.0
I-1
tp7435
tp7436
Rp7437
ag1
(g9
g3
((lp7438
I36681
aI36705
aI36705
F30.0
I-1
tp7439
tp7440
Rp7441
atp7442
tp7443
Rp7444
sI44877
g1
(g2
g3
(I44877
F32.0249043
F34.9087522
(lp7445
g1
(g9
g3
((lp7446
I44877
aI95437
aI95438
aI95439
aI95440
aI95441
aI95442
aI95442
F79.0
I-1
tp7447
tp7448
Rp7449
ag1
(g9
g3
((lp7450
I44877
aI95437
aI95438
aI95438
F32.0
I-1
tp7451
tp7452
Rp7453
ag1
(g9
g3
((lp7454
I44877
aI95437
aI95438
aI95439
aI95439
F51.0
I-1
tp7455
tp7456
Rp7457
ag1
(g9
g3
((lp7458
I44877
aI95437
aI95438
aI95439
aI95440
aI95440
F61.0
I-1
tp7459
tp7460
Rp7461
ag1
(g9
g3
((lp7462
I44877
aI95437
aI95438
aI95439
aI95440
aI95441
aI95441
F71.0
I-1
tp7463
tp7464
Rp7465
ag1
(g9
g3
((lp7466
I44877
aI95437
aI95437
F20.0
I-1
tp7467
tp7468
Rp7469
atp7470
tp7471
Rp7472
sI24401
g1
(g2
g3
(I24401
F31.8863233
F34.8251593
(lp7473
tp7474
tp7475
Rp7476
sI26452
g1
(g2
g3
(I26452
F32.1092049
F34.8302175
(lp7477
g1
(g9
g3
((lp7478
I26452
aI21250
aI21250
F5.0
I-1
tp7479
tp7480
Rp7481
ag1
(g9
g3
((lp7482
I26452
aI26453
aI26453
F5.0
I-1
tp7483
tp7484
Rp7485
ag1
(g9
g3
((lp7486
I26452
aI26453
aI26454
aI26454
F7.0
I-1
tp7487
tp7488
Rp7489
ag1
(g9
g3
((lp7490
I26452
aI26453
aI26454
aI26455
aI26455
F12.0
I-1
tp7491
tp7492
Rp7493
ag1
(g9
g3
((lp7494
I26452
aI26453
aI26454
aI26455
aI26456
aI26456
F17.0
I-1
tp7495
tp7496
Rp7497
atp7498
tp7499
Rp7500
sI26453
g1
(g2
g3
(I26453
F32.109202
F34.8301604
(lp7501
g1
(g9
g3
((lp7502
I26453
aI26452
aI21250
aI21250
F10.0
I-1
tp7503
tp7504
Rp7505
ag1
(g9
g3
((lp7506
I26453
aI26452
aI26452
F5.0
I-1
tp7507
tp7508
Rp7509
ag1
(g9
g3
((lp7510
I26453
aI26454
aI26454
F2.0
I-1
tp7511
tp7512
Rp7513
ag1
(g9
g3
((lp7514
I26453
aI26454
aI26455
aI26455
F7.0
I-1
tp7515
tp7516
Rp7517
ag1
(g9
g3
((lp7518
I26453
aI26454
aI26455
aI26456
aI26456
F12.0
I-1
tp7519
tp7520
Rp7521
atp7522
tp7523
Rp7524
sI26454
g1
(g2
g3
(I26454
F32.1091933
F34.8301306
(lp7525
g1
(g9
g3
((lp7526
I26454
aI26453
aI26452
aI21250
aI21250
F12.0
I-1
tp7527
tp7528
Rp7529
ag1
(g9
g3
((lp7530
I26454
aI26453
aI26452
aI26452
F7.0
I-1
tp7531
tp7532
Rp7533
ag1
(g9
g3
((lp7534
I26454
aI26453
aI26453
F2.0
I-1
tp7535
tp7536
Rp7537
ag1
(g9
g3
((lp7538
I26454
aI26455
aI26455
F5.0
I-1
tp7539
tp7540
Rp7541
ag1
(g9
g3
((lp7542
I26454
aI26455
aI26456
aI26456
F10.0
I-1
tp7543
tp7544
Rp7545
atp7546
tp7547
Rp7548
sI26455
g1
(g2
g3
(I26455
F32.1091658
F34.8300835
(lp7549
g1
(g9
g3
((lp7550
I26455
aI26454
aI26453
aI26452
aI21250
aI21250
F17.0
I-1
tp7551
tp7552
Rp7553
ag1
(g9
g3
((lp7554
I26455
aI26454
aI26453
aI26452
aI26452
F12.0
I-1
tp7555
tp7556
Rp7557
ag1
(g9
g3
((lp7558
I26455
aI26454
aI26453
aI26453
F7.0
I-1
tp7559
tp7560
Rp7561
ag1
(g9
g3
((lp7562
I26455
aI26454
aI26454
F5.0
I-1
tp7563
tp7564
Rp7565
ag1
(g9
g3
((lp7566
I26455
aI26456
aI26456
F5.0
I-1
tp7567
tp7568
Rp7569
atp7570
tp7571
Rp7572
sI26456
g1
(g2
g3
(I26456
F32.1091278
F34.8300511
(lp7573
g1
(g9
g3
((lp7574
I26456
aI26455
aI26454
aI26453
aI26452
aI21250
aI21250
F22.0
I-1
tp7575
tp7576
Rp7577
ag1
(g9
g3
((lp7578
I26456
aI26455
aI26454
aI26453
aI26452
aI26452
F17.0
I-1
tp7579
tp7580
Rp7581
ag1
(g9
g3
((lp7582
I26456
aI26455
aI26454
aI26453
aI26453
F12.0
I-1
tp7583
tp7584
Rp7585
ag1
(g9
g3
((lp7586
I26456
aI26455
aI26454
aI26454
F10.0
I-1
tp7587
tp7588
Rp7589
ag1
(g9
g3
((lp7590
I26456
aI26455
aI26455
F5.0
I-1
tp7591
tp7592
Rp7593
atp7594
tp7595
Rp7596
sI36704
g1
(g2
g3
(I36704
F31.8826775
F34.8260158
(lp7597
g1
(g9
g3
((lp7598
I36704
aI36705
aI36705
F111.0
I-1
tp7599
tp7600
Rp7601
ag1
(g9
g3
((lp7602
I36704
aI36708
aI36708
F81.0
I-1
tp7603
tp7604
Rp7605
ag1
(g9
g3
((lp7606
I36704
aI36705
aI36681
aI36681
F141.0
I-1
tp7607
tp7608
Rp7609
atp7610
tp7611
Rp7612
sI36705
g1
(g2
g3
(I36705
F31.8836502
F34.825732
(lp7613
g1
(g9
g3
((lp7614
I36705
aI36704
aI36704
F111.0
I-1
tp7615
tp7616
Rp7617
ag1
(g9
g3
((lp7618
I36705
aI36704
aI36708
aI36708
F192.0
I-1
tp7619
tp7620
Rp7621
ag1
(g9
g3
((lp7622
I36705
aI36681
aI36681
F30.0
I-1
tp7623
tp7624
Rp7625
atp7626
tp7627
Rp7628
sI36708
g1
(g2
g3
(I36708
F31.8828527
F34.8268567
(lp7629
g1
(g9
g3
((lp7630
I36708
aI36704
aI36704
F81.0
I-1
tp7631
tp7632
Rp7633
ag1
(g9
g3
((lp7634
I36708
aI36704
aI36705
aI36705
F192.0
I-1
tp7635
tp7636
Rp7637
ag1
(g9
g3
((lp7638
I36708
aI36704
aI36705
aI36681
aI36681
F222.0
I-1
tp7639
tp7640
Rp7641
atp7642
tp7643
Rp7644
sI28517
g1
(g2
g3
(I28517
F32.0675579
F34.7646258
(lp7645
g1
(g9
g3
((lp7646
I28517
aI28518
aI28519
aI18840
aI18840
F110.0
I-1
tp7647
tp7648
Rp7649
ag1
(g9
g3
((lp7650
I28517
aI28518
aI28518
F25.0
I-1
tp7651
tp7652
Rp7653
ag1
(g9
g3
((lp7654
I28517
aI28518
aI28519
aI28519
F48.0
I-1
tp7655
tp7656
Rp7657
atp7658
tp7659
Rp7660
sI28518
g1
(g2
g3
(I28518
F32.0673807
F34.764448
(lp7661
g1
(g9
g3
((lp7662
I28518
aI28519
aI18840
aI18840
F85.0
I-1
tp7663
tp7664
Rp7665
ag1
(g9
g3
((lp7666
I28518
aI28517
aI28517
F25.0
I-1
tp7667
tp7668
Rp7669
ag1
(g9
g3
((lp7670
I28518
aI28519
aI28519
F23.0
I-1
tp7671
tp7672
Rp7673
atp7674
tp7675
Rp7676
sI28519
g1
(g2
g3
(I28519
F32.0671972
F34.7643212
(lp7677
g1
(g9
g3
((lp7678
I28519
aI18840
aI18840
F62.0
I-1
tp7679
tp7680
Rp7681
ag1
(g9
g3
((lp7682
I28519
aI28518
aI28517
aI28517
F48.0
I-1
tp7683
tp7684
Rp7685
ag1
(g9
g3
((lp7686
I28519
aI28518
aI28518
F23.0
I-1
tp7687
tp7688
Rp7689
atp7690
tp7691
Rp7692
sI20328
g1
(g2
g3
(I20328
F32.1196496
F34.8262375
(lp7693
tp7694
tp7695
Rp7696
sI46961
g1
(g2
g3
(I46961
F32.0074031
F34.7619613
(lp7697
g1
(g9
g3
((lp7698
I46961
aI74184
aI74184
F64.0
I-1
tp7699
tp7700
Rp7701
ag1
(g9
g3
((lp7702
I46961
aI46962
aI46962
F94.0
I-1
tp7703
tp7704
Rp7705
atp7706
tp7707
Rp7708
sI46962
g1
(g2
g3
(I46962
F32.0072464
F34.762947
(lp7709
g1
(g9
g3
((lp7710
I46962
aI46961
aI74184
aI74184
F158.0
I-1
tp7711
tp7712
Rp7713
ag1
(g9
g3
((lp7714
I46962
aI46961
aI46961
F94.0
I-1
tp7715
tp7716
Rp7717
atp7718
tp7719
Rp7720
sI74047
g1
(g2
g3
(I74047
F32.101068
F34.8486978
(lp7721
g1
(g9
g3
((lp7722
I74047
aI74046
aI27918
aI27919
aI27919
F101.0
I-1
tp7723
tp7724
Rp7725
ag1
(g9
g3
((lp7726
I74047
aI74046
aI27918
aI27918
F70.0
I-1
tp7727
tp7728
Rp7729
ag1
(g9
g3
((lp7730
I74047
aI74046
aI74046
F53.0
I-1
tp7731
tp7732
Rp7733
atp7734
tp7735
Rp7736
sI59266
g1
(g2
g3
(I59266
F31.929881
F34.7877294
(lp7737
g1
(g9
g3
((lp7738
I59266
aI59281
aI59281
F7.0
I-1
tp7739
tp7740
Rp7741
ag1
(g9
g3
((lp7742
I59266
aI59267
aI59267
F6.0
I-1
tp7743
tp7744
Rp7745
ag1
(g9
g3
((lp7746
I59266
aI59267
aI59268
aI59268
F13.0
I-1
tp7747
tp7748
Rp7749
ag1
(g9
g3
((lp7750
I59266
aI59267
aI59268
aI59269
aI59269
F19.0
I-1
tp7751
tp7752
Rp7753
atp7754
tp7755
Rp7756
sI59267
g1
(g2
g3
(I59267
F31.9299233
F34.7876846
(lp7757
g1
(g9
g3
((lp7758
I59267
aI59266
aI59281
aI59281
F13.0
I-1
tp7759
tp7760
Rp7761
ag1
(g9
g3
((lp7762
I59267
aI59266
aI59266
F6.0
I-1
tp7763
tp7764
Rp7765
ag1
(g9
g3
((lp7766
I59267
aI59268
aI59268
F7.0
I-1
tp7767
tp7768
Rp7769
ag1
(g9
g3
((lp7770
I59267
aI59268
aI59269
aI59269
F13.0
I-1
tp7771
tp7772
Rp7773
atp7774
tp7775
Rp7776
sI59268
g1
(g2
g3
(I59268
F31.9299538
F34.7876091
(lp7777
g1
(g9
g3
((lp7778
I59268
aI59267
aI59266
aI59281
aI59281
F20.0
I-1
tp7779
tp7780
Rp7781
ag1
(g9
g3
((lp7782
I59268
aI59267
aI59266
aI59266
F13.0
I-1
tp7783
tp7784
Rp7785
ag1
(g9
g3
((lp7786
I59268
aI59267
aI59267
F7.0
I-1
tp7787
tp7788
Rp7789
ag1
(g9
g3
((lp7790
I59268
aI59269
aI59269
F6.0
I-1
tp7791
tp7792
Rp7793
atp7794
tp7795
Rp7796
sI59269
g1
(g2
g3
(I59269
F31.9299568
F34.7875422
(lp7797
g1
(g9
g3
((lp7798
I59269
aI59268
aI59267
aI59266
aI59281
aI59281
F26.0
I-1
tp7799
tp7800
Rp7801
ag1
(g9
g3
((lp7802
I59269
aI59268
aI59267
aI59266
aI59266
F19.0
I-1
tp7803
tp7804
Rp7805
ag1
(g9
g3
((lp7806
I59269
aI59268
aI59267
aI59267
F13.0
I-1
tp7807
tp7808
Rp7809
ag1
(g9
g3
((lp7810
I59269
aI59268
aI59268
F6.0
I-1
tp7811
tp7812
Rp7813
atp7814
tp7815
Rp7816
sI20360
g1
(g2
g3
(I20360
F32.1084796
F34.8194656
(lp7817
g1
(g9
g3
((lp7818
I20360
aI20361
aI20361
F4.0
I-1
tp7819
tp7820
Rp7821
ag1
(g9
g3
((lp7822
I20360
aI20361
aI20362
aI20362
F9.0
I-1
tp7823
tp7824
Rp7825
ag1
(g9
g3
((lp7826
I20360
aI20361
aI20362
aI20363
aI20363
F13.0
I-1
tp7827
tp7828
Rp7829
atp7830
tp7831
Rp7832
sI20361
g1
(g2
g3
(I20361
F32.1084394
F34.8194601
(lp7833
g1
(g9
g3
((lp7834
I20361
aI20360
aI20360
F4.0
I-1
tp7835
tp7836
Rp7837
ag1
(g9
g3
((lp7838
I20361
aI20362
aI20362
F5.0
I-1
tp7839
tp7840
Rp7841
ag1
(g9
g3
((lp7842
I20361
aI20362
aI20363
aI20363
F9.0
I-1
tp7843
tp7844
Rp7845
atp7846
tp7847
Rp7848
sI20362
g1
(g2
g3
(I20362
F32.1083888
F34.8194777
(lp7849
g1
(g9
g3
((lp7850
I20362
aI20361
aI20360
aI20360
F9.0
I-1
tp7851
tp7852
Rp7853
ag1
(g9
g3
((lp7854
I20362
aI20361
aI20361
F5.0
I-1
tp7855
tp7856
Rp7857
ag1
(g9
g3
((lp7858
I20362
aI20363
aI20363
F4.0
I-1
tp7859
tp7860
Rp7861
atp7862
tp7863
Rp7864
sI20363
g1
(g2
g3
(I20363
F32.1083577
F34.8195081
(lp7865
g1
(g9
g3
((lp7866
I20363
aI20362
aI20361
aI20360
aI20360
F13.0
I-1
tp7867
tp7868
Rp7869
ag1
(g9
g3
((lp7870
I20363
aI20362
aI20361
aI20361
F9.0
I-1
tp7871
tp7872
Rp7873
ag1
(g9
g3
((lp7874
I20363
aI20362
aI20362
F4.0
I-1
tp7875
tp7876
Rp7877
atp7878
tp7879
Rp7880
sI14220
g1
(g2
g3
(I14220
F31.9532941
F34.8064352
(lp7881
g1
(g9
g3
((lp7882
I14220
aI13808
aI13808
F17.0
I-1
tp7883
tp7884
Rp7885
ag1
(g9
g3
((lp7886
I14220
aI13808
aI13809
aI13809
F69.0
I-1
tp7887
tp7888
Rp7889
ag1
(g9
g3
((lp7890
I14220
aI13808
aI13809
aI13810
aI13810
F85.0
I-1
tp7891
tp7892
Rp7893
ag1
(g9
g3
((lp7894
I14220
aI13808
aI13809
aI13810
aI14051
aI14051
F92.0
I-1
tp7895
tp7896
Rp7897
atp7898
tp7899
Rp7900
sI83857
g1
(g2
g3
(I83857
F32.079775
F34.8091937
(lp7901
g1
(g9
g3
((lp7902
I83857
aI83907
aI83907
F167.0
I-1
tp7903
tp7904
Rp7905
ag1
(g9
g3
((lp7906
I83857
aI83894
aI83894
F82.0
I-1
tp7907
tp7908
Rp7909
atp7910
tp7911
Rp7912
sI28562
g1
(g2
g3
(I28562
F32.0681955
F34.7667932
(lp7913
g1
(g9
g3
((lp7914
I28562
aI35537
aI35537
F30.0
I-1
tp7915
tp7916
Rp7917
ag1
(g9
g3
((lp7918
I28562
aI33594
aI33594
F36.0
I-1
tp7919
tp7920
Rp7921
atp7922
tp7923
Rp7924
sI71326
g1
(g2
g3
(I71326
F32.075636
F34.8292543
(lp7925
tp7926
tp7927
Rp7928
sI83894
g1
(g2
g3
(I83894
F32.0790539
F34.8094067
(lp7929
g1
(g9
g3
((lp7930
I83894
aI83857
aI83857
F82.0
I-1
tp7931
tp7932
Rp7933
ag1
(g9
g3
((lp7934
I83894
aI83857
aI83907
aI83907
F249.0
I-1
tp7935
tp7936
Rp7937
atp7938
tp7939
Rp7940
sI47092
g1
(g2
g3
(I47092
F32.0203894
F34.7815699
(lp7941
tp7942
tp7943
Rp7944
sI20416
g1
(g2
g3
(I20416
F32.123288
F34.831511
(lp7945
g1
(g9
g3
((lp7946
I20416
aI20417
aI20417
F5.0
I-1
tp7947
tp7948
Rp7949
ag1
(g9
g3
((lp7950
I20416
aI20417
aI20418
aI20418
F9.0
I-1
tp7951
tp7952
Rp7953
atp7954
tp7955
Rp7956
sI20417
g1
(g2
g3
(I20417
F32.1232872
F34.831452
(lp7957
g1
(g9
g3
((lp7958
I20417
aI20416
aI20416
F5.0
I-1
tp7959
tp7960
Rp7961
ag1
(g9
g3
((lp7962
I20417
aI20418
aI20418
F4.0
I-1
tp7963
tp7964
Rp7965
atp7966
tp7967
Rp7968
sI20418
g1
(g2
g3
(I20418
F32.1232691
F34.8314087
(lp7969
g1
(g9
g3
((lp7970
I20418
aI20417
aI20416
aI20416
F9.0
I-1
tp7971
tp7972
Rp7973
ag1
(g9
g3
((lp7974
I20418
aI20417
aI20417
F4.0
I-1
tp7975
tp7976
Rp7977
atp7978
tp7979
Rp7980
sI83907
g1
(g2
g3
(I83907
F32.0795113
F34.8074435
(lp7981
g1
(g9
g3
((lp7982
I83907
aI83857
aI83857
F167.0
I-1
tp7983
tp7984
Rp7985
ag1
(g9
g3
((lp7986
I83907
aI83857
aI83894
aI83894
F249.0
I-1
tp7987
tp7988
Rp7989
atp7990
tp7991
Rp7992
sI16332
g1
(g2
g3
(I16332
F32.0935728
F34.8763995
(lp7993
tp7994
tp7995
Rp7996
sI42962
g1
(g2
g3
(I42962
F32.0689611
F34.9167767
(lp7997
tp7998
tp7999
Rp8000
sI16037
g1
(g2
g3
(I16037
F32.0673369
F34.7828133
(lp8001
g1
(g9
g3
((lp8002
I16037
aI16039
aI16040
aI16041
aI16042
aI16048
aI16049
aI16050
aI16034
aI16034
F214.0
I-1
tp8003
tp8004
Rp8005
ag1
(g9
g3
((lp8006
I16037
aI16038
aI16038
F35.0
I-1
tp8007
tp8008
Rp8009
ag1
(g9
g3
((lp8010
I16037
aI16039
aI16039
F28.0
I-1
tp8011
tp8012
Rp8013
ag1
(g9
g3
((lp8014
I16037
aI16039
aI16040
aI16040
F62.0
I-1
tp8015
tp8016
Rp8017
ag1
(g9
g3
((lp8018
I16037
aI16039
aI16040
aI16041
aI16041
F86.0
I-1
tp8019
tp8020
Rp8021
ag1
(g9
g3
((lp8022
I16037
aI16039
aI16040
aI16041
aI16042
aI16042
F107.0
I-1
tp8023
tp8024
Rp8025
ag1
(g9
g3
((lp8026
I16037
aI16039
aI16040
aI16041
aI16042
aI16043
aI16043
F146.0
I-1
tp8027
tp8028
Rp8029
ag1
(g9
g3
((lp8030
I16037
aI16039
aI16040
aI16041
aI16042
aI16048
aI16047
aI16046
aI16046
F197.0
I-1
tp8031
tp8032
Rp8033
ag1
(g9
g3
((lp8034
I16037
aI16039
aI16040
aI16041
aI16042
aI16048
aI16047
aI16047
F164.0
I-1
tp8035
tp8036
Rp8037
ag1
(g9
g3
((lp8038
I16037
aI16039
aI16040
aI16041
aI16042
aI16048
aI16048
F152.0
I-1
tp8039
tp8040
Rp8041
ag1
(g9
g3
((lp8042
I16037
aI16039
aI16040
aI16041
aI16042
aI16048
aI16049
aI16049
F173.0
I-1
tp8043
tp8044
Rp8045
ag1
(g9
g3
((lp8046
I16037
aI16039
aI16040
aI16041
aI16042
aI16048
aI16049
aI16050
aI16050
F212.0
I-1
tp8047
tp8048
Rp8049
atp8050
tp8051
Rp8052
sI83947
g1
(g2
g3
(I83947
F32.0765
F34.8032428
(lp8053
g1
(g9
g3
((lp8054
I83947
aI83955
aI83955
F84.0
I-1
tp8055
tp8056
Rp8057
atp8058
tp8059
Rp8060
sI79853
g1
(g2
g3
(I79853
F32.0706345
F34.8406136
(lp8061
g1
(g9
g3
((lp8062
I79853
aI79854
aI82738
aI82738
F108.0
I-1
tp8063
tp8064
Rp8065
ag1
(g9
g3
((lp8066
I79853
aI79854
aI82738
aI51267
aI51267
F224.0
I-1
tp8067
tp8068
Rp8069
ag1
(g9
g3
((lp8070
I79853
aI79854
aI82738
aI51267
aI51268
aI51268
F233.0
I-1
tp8071
tp8072
Rp8073
ag1
(g9
g3
((lp8074
I79853
aI79854
aI79854
F52.0
I-1
tp8075
tp8076
Rp8077
atp8078
tp8079
Rp8080
sI79854
g1
(g2
g3
(I79854
F32.0708906
F34.8401474
(lp8081
g1
(g9
g3
((lp8082
I79854
aI82738
aI82738
F56.0
I-1
tp8083
tp8084
Rp8085
ag1
(g9
g3
((lp8086
I79854
aI82738
aI51267
aI51267
F172.0
I-1
tp8087
tp8088
Rp8089
ag1
(g9
g3
((lp8090
I79854
aI82738
aI51267
aI51268
aI51268
F181.0
I-1
tp8091
tp8092
Rp8093
ag1
(g9
g3
((lp8094
I79854
aI79853
aI79853
F52.0
I-1
tp8095
tp8096
Rp8097
atp8098
tp8099
Rp8100
sI12273
g1
(g2
g3
(I12273
F32.0153944
F34.7386035
(lp8101
tp8102
tp8103
Rp8104
sI83955
g1
(g2
g3
(I83955
F32.0765011
F34.8023505
(lp8105
g1
(g9
g3
((lp8106
I83955
aI83947
aI83947
F84.0
I-1
tp8107
tp8108
Rp8109
atp8110
tp8111
Rp8112
sI69620
g1
(g2
g3
(I69620
F32.0010946
F34.8019283
(lp8113
g1
(g9
g3
((lp8114
I69620
aI69621
aI69621
F9.0
I-1
tp8115
tp8116
Rp8117
ag1
(g9
g3
((lp8118
I69620
aI69621
aI69622
aI69622
F18.0
I-1
tp8119
tp8120
Rp8121
ag1
(g9
g3
((lp8122
I69620
aI69621
aI69622
aI69623
aI69623
F21.0
I-1
tp8123
tp8124
Rp8125
ag1
(g9
g3
((lp8126
I69620
aI69621
aI69622
aI69623
aI69624
aI69624
F31.0
I-1
tp8127
tp8128
Rp8129
ag1
(g9
g3
((lp8130
I69620
aI69621
aI69622
aI69623
aI69624
aI69625
aI69625
F39.0
I-1
tp8131
tp8132
Rp8133
atp8134
tp8135
Rp8136
sI69621
g1
(g2
g3
(I69621
F32.0010114
F34.8019095
(lp8137
g1
(g9
g3
((lp8138
I69621
aI69620
aI69620
F9.0
I-1
tp8139
tp8140
Rp8141
ag1
(g9
g3
((lp8142
I69621
aI69622
aI69622
F9.0
I-1
tp8143
tp8144
Rp8145
ag1
(g9
g3
((lp8146
I69621
aI69622
aI69623
aI69623
F12.0
I-1
tp8147
tp8148
Rp8149
ag1
(g9
g3
((lp8150
I69621
aI69622
aI69623
aI69624
aI69624
F22.0
I-1
tp8151
tp8152
Rp8153
ag1
(g9
g3
((lp8154
I69621
aI69622
aI69623
aI69624
aI69625
aI69625
F30.0
I-1
tp8155
tp8156
Rp8157
atp8158
tp8159
Rp8160
sI69622
g1
(g2
g3
(I69622
F32.0009299
F34.8019268
(lp8161
g1
(g9
g3
((lp8162
I69622
aI69621
aI69620
aI69620
F18.0
I-1
tp8163
tp8164
Rp8165
ag1
(g9
g3
((lp8166
I69622
aI69621
aI69621
F9.0
I-1
tp8167
tp8168
Rp8169
ag1
(g9
g3
((lp8170
I69622
aI69623
aI69623
F3.0
I-1
tp8171
tp8172
Rp8173
ag1
(g9
g3
((lp8174
I69622
aI69623
aI69624
aI69624
F13.0
I-1
tp8175
tp8176
Rp8177
ag1
(g9
g3
((lp8178
I69622
aI69623
aI69624
aI69625
aI69625
F21.0
I-1
tp8179
tp8180
Rp8181
atp8182
tp8183
Rp8184
sI69623
g1
(g2
g3
(I69623
F32.0008979
F34.8019444
(lp8185
g1
(g9
g3
((lp8186
I69623
aI69622
aI69621
aI69620
aI69620
F21.0
I-1
tp8187
tp8188
Rp8189
ag1
(g9
g3
((lp8190
I69623
aI69622
aI69621
aI69621
F12.0
I-1
tp8191
tp8192
Rp8193
ag1
(g9
g3
((lp8194
I69623
aI69622
aI69622
F3.0
I-1
tp8195
tp8196
Rp8197
ag1
(g9
g3
((lp8198
I69623
aI69624
aI69624
F10.0
I-1
tp8199
tp8200
Rp8201
ag1
(g9
g3
((lp8202
I69623
aI69624
aI69625
aI69625
F18.0
I-1
tp8203
tp8204
Rp8205
atp8206
tp8207
Rp8208
sI69624
g1
(g2
g3
(I69624
F32.0008291
F34.8020144
(lp8209
g1
(g9
g3
((lp8210
I69624
aI69623
aI69622
aI69621
aI69620
aI69620
F31.0
I-1
tp8211
tp8212
Rp8213
ag1
(g9
g3
((lp8214
I69624
aI69623
aI69622
aI69621
aI69621
F22.0
I-1
tp8215
tp8216
Rp8217
ag1
(g9
g3
((lp8218
I69624
aI69623
aI69622
aI69622
F13.0
I-1
tp8219
tp8220
Rp8221
ag1
(g9
g3
((lp8222
I69624
aI69623
aI69623
F10.0
I-1
tp8223
tp8224
Rp8225
ag1
(g9
g3
((lp8226
I69624
aI69625
aI69625
F8.0
I-1
tp8227
tp8228
Rp8229
atp8230
tp8231
Rp8232
sI69625
g1
(g2
g3
(I69625
F32.0007934
F34.8020928
(lp8233
g1
(g9
g3
((lp8234
I69625
aI69624
aI69623
aI69622
aI69621
aI69620
aI69620
F39.0
I-1
tp8235
tp8236
Rp8237
ag1
(g9
g3
((lp8238
I69625
aI69624
aI69623
aI69622
aI69621
aI69621
F30.0
I-1
tp8239
tp8240
Rp8241
ag1
(g9
g3
((lp8242
I69625
aI69624
aI69623
aI69622
aI69622
F21.0
I-1
tp8243
tp8244
Rp8245
ag1
(g9
g3
((lp8246
I69625
aI69624
aI69623
aI69623
F18.0
I-1
tp8247
tp8248
Rp8249
ag1
(g9
g3
((lp8250
I69625
aI69624
aI69624
F8.0
I-1
tp8251
tp8252
Rp8253
atp8254
tp8255
Rp8256
sI26618
g1
(g2
g3
(I26618
F32.1160902
F34.8271029
(lp8257
tp8258
tp8259
Rp8260
sI10237
g1
(g2
g3
(I10237
F32.1536848
F34.8474049
(lp8261
g1
(g9
g3
((lp8262
I10237
aI40550
aI40550
F2.0
I-1
tp8263
tp8264
Rp8265
ag1
(g9
g3
((lp8266
I10237
aI40551
aI40551
F3.0
I-1
tp8267
tp8268
Rp8269
atp8270
tp8271
Rp8272
sI26622
g1
(g2
g3
(I26622
F32.1163692
F34.8291202
(lp8273
tp8274
tp8275
Rp8276
sI67583
g1
(g2
g3
(I67583
F32.0820694
F34.8047347
(lp8277
tp8278
tp8279
Rp8280
s.